

Microchip MPLAB XC8 Assembler V2.50 build 20240725155939 
                                                                                               Sun Dec 15 14:17:04 2024

Microchip MPLAB XC8 C Compiler v2.50 (Free license) build 20240725155939 Og1 
     1                           	processor	18F4550
     2                           	fnconf	rparam,??,?,0
     3                           	pagewidth 120
     4                           	opt	flic
     5                           	psect	idataCOMRAM,global,class=CODE,space=0,delta=1,noexec
     6                           	psect	cinit,global,reloc=2,class=CODE,space=0,delta=1
     7                           	psect	bssCOMRAM,global,class=COMRAM,space=1,delta=1,lowdata,noexec
     8                           	psect	dataCOMRAM,global,class=COMRAM,space=1,delta=1,lowdata,noexec
     9                           	psect	bssBANK0,global,class=BANK0,space=1,delta=1,lowdata,noexec
    10                           	psect	cstackBANK0,global,class=BANK0,space=1,delta=1,lowdata,noexec
    11                           	psect	cstackCOMRAM,global,class=COMRAM,space=1,delta=1,lowdata,noexec
    12                           	psect	text0,global,reloc=2,class=CODE,space=0,delta=1
    13                           	psect	text1,global,reloc=2,class=CODE,space=0,delta=1
    14                           	psect	text2,global,reloc=2,class=CODE,space=0,delta=1
    15                           	psect	text3,global,reloc=2,class=CODE,space=0,delta=1
    16                           	psect	text4,global,reloc=2,class=CODE,space=0,delta=1
    17                           	psect	text5,global,reloc=2,class=CODE,space=0,delta=1
    18                           	psect	text6,global,reloc=2,class=CODE,space=0,delta=1,group=2
    19                           	psect	text7,global,reloc=2,class=CODE,space=0,delta=1,group=2
    20                           	psect	text8,global,reloc=2,class=CODE,space=0,delta=1,group=2
    21                           	psect	text9,global,reloc=2,class=CODE,space=0,delta=1,group=1
    22                           	psect	text10,global,reloc=2,class=CODE,space=0,delta=1,group=1
    23                           	psect	text11,global,reloc=2,class=CODE,space=0,delta=1,group=1
    24                           	psect	text12,global,reloc=2,class=CODE,space=0,delta=1,group=1
    25                           	psect	text13,global,reloc=2,class=CODE,space=0,delta=1,group=1
    26                           	psect	text14,global,reloc=2,class=CODE,space=0,delta=1,group=1
    27                           	psect	text15,global,reloc=2,class=CODE,space=0,delta=1
    28                           	psect	text16,global,reloc=2,class=CODE,space=0,delta=1
    29                           	psect	text17,global,reloc=2,class=CODE,space=0,delta=1
    30                           	psect	text18,global,reloc=2,class=CODE,space=0,delta=1
    31                           	psect	text19,global,reloc=2,class=CODE,space=0,delta=1,group=1
    32                           	psect	text20,global,reloc=2,class=CODE,space=0,delta=1
    33                           	psect	intcode,global,reloc=2,class=CODE,space=0,delta=1
    34                           	psect	intcode_body,global,reloc=2,class=CODE,space=0,delta=1
    35                           	psect	text22,global,reloc=2,class=CODE,space=0,delta=1
    36                           	psect	smallconst,global,reloc=2,class=SMALLCONST,space=0,delta=1,noexec
    37                           	psect	intsave_regs,global,class=BIGRAM,space=1,delta=1,noexec
    38                           	psect	rparam,global,class=COMRAM,space=1,delta=1,noexec
    39                           	psect	temp,global,ovrld,common,class=COMRAM,space=1,delta=1,lowdata
    40   000000                     
    41                           ; Generated 17/10/2023 GMT
    42                           ; 
    43                           ; Copyright © 2023, Microchip Technology Inc. and its subsidiaries ("Microchip")
    44                           ; All rights reserved.
    45                           ; 
    46                           ; This software is developed by Microchip Technology Inc. and its subsidiaries ("Microch
      +                          ip").
    47                           ; 
    48                           ; Redistribution and use in source and binary forms, with or without modification, are
    49                           ; permitted provided that the following conditions are met:
    50                           ; 
    51                           ;     1. Redistributions of source code must retain the above copyright notice, this lis
      +                          t of
    52                           ;        conditions and the following disclaimer.
    53                           ; 
    54                           ;     2. Redistributions in binary form must reproduce the above copyright notice, this 
      +                          list
    55                           ;        of conditions and the following disclaimer in the documentation and/or other
    56                           ;        materials provided with the distribution. Publication is not required when
    57                           ;        this file is used in an embedded application.
    58                           ; 
    59                           ;     3. Microchip's name may not be used to endorse or promote products derived from th
      +                          is
    60                           ;        software without specific prior written permission.
    61                           ; 
    62                           ; THIS SOFTWARE IS PROVIDED BY MICROCHIP "AS IS" AND ANY EXPRESS OR IMPLIED WARRANTIES,
    63                           ; INCLUDING, BUT NOT LIMITED TO, THE IMPLIED WARRANTIES OF MERCHANTABILITY AND FITNESS F
      +                          OR
    64                           ; PURPOSE ARE DISCLAIMED.  IN NO EVENT SHALL MICROCHIP BE LIABLE FOR ANY DIRECT, INDIREC
      +                          T,
    65                           ; INCIDENTAL, SPECIAL, EXEMPLARY, OR CONSEQUENTIAL DAMAGES (INCLUDING BUT NOT LIMITED TO
    66                           ; PROCUREMENT OF SUBSTITUTE GOODS OR SERVICES; LOSS OF USE, DATA OR PROFITS; OR BUSINESS
    67                           ; INTERRUPTION) HOWSOEVER CAUSED AND ON ANY THEORY OF LIABILITY, WHETHER IN CONTRACT, ST
      +                          RICT
    68                           ; LIABILITY, OR TORT (INCLUDING NEGLIGENCE OR OTHERWISE) ARISING IN ANY WAY OUT OF THE U
      +                          SE OF
    69                           ; THIS SOFTWARE, EVEN IF ADVISED OF THE POSSIBILITY OF SUCH DAMAGE.
    70                           ; 
    71                           ; 
    72                           ; Code-generator required, PIC18F4550 Definitions
    73                           ; 
    74                           ; SFR Addresses
    75   000FE0                     bsr             equ	4064
    76   000FE9                     fsr0            equ	4073
    77   000FEA                     fsr0h           equ	4074
    78   000FE9                     fsr0l           equ	4073
    79   000FE1                     fsr1            equ	4065
    80   000FE2                     fsr1h           equ	4066
    81   000FE1                     fsr1l           equ	4065
    82   000FD9                     fsr2            equ	4057
    83   000FDA                     fsr2h           equ	4058
    84   000FD9                     fsr2l           equ	4057
    85   000FEF                     indf0           equ	4079
    86   000FE7                     indf1           equ	4071
    87   000FDF                     indf2           equ	4063
    88   000FF2                     intcon          equ	4082
    89   000000                     nvmcon          equ	0
    90   000FF9                     pcl             equ	4089
    91   000FFA                     pclath          equ	4090
    92   000FFB                     pclatu          equ	4091
    93   000FEB                     plusw0          equ	4075
    94   000FE3                     plusw1          equ	4067
    95   000FDB                     plusw2          equ	4059
    96   000FED                     postdec0        equ	4077
    97   000FE5                     postdec1        equ	4069
    98   000FDD                     postdec2        equ	4061
    99   000FEE                     postinc0        equ	4078
   100   000FE6                     postinc1        equ	4070
   101   000FDE                     postinc2        equ	4062
   102   000FEC                     preinc0         equ	4076
   103   000FE4                     preinc1         equ	4068
   104   000FDC                     preinc2         equ	4060
   105   000FF3                     prod            equ	4083
   106   000FF4                     prodh           equ	4084
   107   000FF3                     prodl           equ	4083
   108   000FD8                     status          equ	4056
   109   000FF5                     tablat          equ	4085
   110   000FF6                     tblptr          equ	4086
   111   000FF7                     tblptrh         equ	4087
   112   000FF6                     tblptrl         equ	4086
   113   000FF8                     tblptru         equ	4088
   114   000FFD                     tosl            equ	4093
   115   000FE8                     wreg            equ	4072
   116   000F62                     SPPDATA         equ	3938	;# 
   117   000F63                     SPPCFG          equ	3939	;# 
   118   000F64                     SPPEPS          equ	3940	;# 
   119   000F65                     SPPCON          equ	3941	;# 
   120   000F66                     UFRM            equ	3942	;# 
   121   000F66                     UFRML           equ	3942	;# 
   122   000F67                     UFRMH           equ	3943	;# 
   123   000F68                     UIR             equ	3944	;# 
   124   000F69                     UIE             equ	3945	;# 
   125   000F6A                     UEIR            equ	3946	;# 
   126   000F6B                     UEIE            equ	3947	;# 
   127   000F6C                     USTAT           equ	3948	;# 
   128   000F6D                     UCON            equ	3949	;# 
   129   000F6E                     UADDR           equ	3950	;# 
   130   000F6F                     UCFG            equ	3951	;# 
   131   000F70                     UEP0            equ	3952	;# 
   132   000F71                     UEP1            equ	3953	;# 
   133   000F72                     UEP2            equ	3954	;# 
   134   000F73                     UEP3            equ	3955	;# 
   135   000F74                     UEP4            equ	3956	;# 
   136   000F75                     UEP5            equ	3957	;# 
   137   000F76                     UEP6            equ	3958	;# 
   138   000F77                     UEP7            equ	3959	;# 
   139   000F78                     UEP8            equ	3960	;# 
   140   000F79                     UEP9            equ	3961	;# 
   141   000F7A                     UEP10           equ	3962	;# 
   142   000F7B                     UEP11           equ	3963	;# 
   143   000F7C                     UEP12           equ	3964	;# 
   144   000F7D                     UEP13           equ	3965	;# 
   145   000F7E                     UEP14           equ	3966	;# 
   146   000F7F                     UEP15           equ	3967	;# 
   147   000F80                     PORTA           equ	3968	;# 
   148   000F81                     PORTB           equ	3969	;# 
   149   000F82                     PORTC           equ	3970	;# 
   150   000F83                     PORTD           equ	3971	;# 
   151   000F84                     PORTE           equ	3972	;# 
   152   000F89                     LATA            equ	3977	;# 
   153   000F8A                     LATB            equ	3978	;# 
   154   000F8B                     LATC            equ	3979	;# 
   155   000F8C                     LATD            equ	3980	;# 
   156   000F8D                     LATE            equ	3981	;# 
   157   000F92                     TRISA           equ	3986	;# 
   158   000F92                     DDRA            equ	3986	;# 
   159   000F93                     TRISB           equ	3987	;# 
   160   000F93                     DDRB            equ	3987	;# 
   161   000F94                     TRISC           equ	3988	;# 
   162   000F94                     DDRC            equ	3988	;# 
   163   000F95                     TRISD           equ	3989	;# 
   164   000F95                     DDRD            equ	3989	;# 
   165   000F96                     TRISE           equ	3990	;# 
   166   000F96                     DDRE            equ	3990	;# 
   167   000F9B                     OSCTUNE         equ	3995	;# 
   168   000F9D                     PIE1            equ	3997	;# 
   169   000F9E                     PIR1            equ	3998	;# 
   170   000F9F                     IPR1            equ	3999	;# 
   171   000FA0                     PIE2            equ	4000	;# 
   172   000FA1                     PIR2            equ	4001	;# 
   173   000FA2                     IPR2            equ	4002	;# 
   174   000FA6                     EECON1          equ	4006	;# 
   175   000FA7                     EECON2          equ	4007	;# 
   176   000FA8                     EEDATA          equ	4008	;# 
   177   000FA9                     EEADR           equ	4009	;# 
   178   000FAB                     RCSTA           equ	4011	;# 
   179   000FAB                     RCSTA1          equ	4011	;# 
   180   000FAC                     TXSTA           equ	4012	;# 
   181   000FAC                     TXSTA1          equ	4012	;# 
   182   000FAD                     TXREG           equ	4013	;# 
   183   000FAD                     TXREG1          equ	4013	;# 
   184   000FAE                     RCREG           equ	4014	;# 
   185   000FAE                     RCREG1          equ	4014	;# 
   186   000FAF                     SPBRG           equ	4015	;# 
   187   000FAF                     SPBRG1          equ	4015	;# 
   188   000FB0                     SPBRGH          equ	4016	;# 
   189   000FB1                     T3CON           equ	4017	;# 
   190   000FB2                     TMR3            equ	4018	;# 
   191   000FB2                     TMR3L           equ	4018	;# 
   192   000FB3                     TMR3H           equ	4019	;# 
   193   000FB4                     CMCON           equ	4020	;# 
   194   000FB5                     CVRCON          equ	4021	;# 
   195   000FB6                     ECCP1AS         equ	4022	;# 
   196   000FB6                     CCP1AS          equ	4022	;# 
   197   000FB7                     ECCP1DEL        equ	4023	;# 
   198   000FB7                     CCP1DEL         equ	4023	;# 
   199   000FB8                     BAUDCON         equ	4024	;# 
   200   000FB8                     BAUDCTL         equ	4024	;# 
   201   000FBA                     CCP2CON         equ	4026	;# 
   202   000FBB                     CCPR2           equ	4027	;# 
   203   000FBB                     CCPR2L          equ	4027	;# 
   204   000FBC                     CCPR2H          equ	4028	;# 
   205   000FBD                     CCP1CON         equ	4029	;# 
   206   000FBD                     ECCP1CON        equ	4029	;# 
   207   000FBE                     CCPR1           equ	4030	;# 
   208   000FBE                     CCPR1L          equ	4030	;# 
   209   000FBF                     CCPR1H          equ	4031	;# 
   210   000FC0                     ADCON2          equ	4032	;# 
   211   000FC1                     ADCON1          equ	4033	;# 
   212   000FC2                     ADCON0          equ	4034	;# 
   213   000FC3                     ADRES           equ	4035	;# 
   214   000FC3                     ADRESL          equ	4035	;# 
   215   000FC4                     ADRESH          equ	4036	;# 
   216   000FC5                     SSPCON2         equ	4037	;# 
   217   000FC6                     SSPCON1         equ	4038	;# 
   218   000FC7                     SSPSTAT         equ	4039	;# 
   219   000FC8                     SSPADD          equ	4040	;# 
   220   000FC9                     SSPBUF          equ	4041	;# 
   221   000FCA                     T2CON           equ	4042	;# 
   222   000FCB                     PR2             equ	4043	;# 
   223   000FCB                     MEMCON          equ	4043	;# 
   224   000FCC                     TMR2            equ	4044	;# 
   225   000FCD                     T1CON           equ	4045	;# 
   226   000FCE                     TMR1            equ	4046	;# 
   227   000FCE                     TMR1L           equ	4046	;# 
   228   000FCF                     TMR1H           equ	4047	;# 
   229   000FD0                     RCON            equ	4048	;# 
   230   000FD1                     WDTCON          equ	4049	;# 
   231   000FD2                     HLVDCON         equ	4050	;# 
   232   000FD2                     LVDCON          equ	4050	;# 
   233   000FD3                     OSCCON          equ	4051	;# 
   234   000FD5                     T0CON           equ	4053	;# 
   235   000FD6                     TMR0            equ	4054	;# 
   236   000FD6                     TMR0L           equ	4054	;# 
   237   000FD7                     TMR0H           equ	4055	;# 
   238   000FD8                     STATUS          equ	4056	;# 
   239   000FD9                     FSR2            equ	4057	;# 
   240   000FD9                     FSR2L           equ	4057	;# 
   241   000FDA                     FSR2H           equ	4058	;# 
   242   000FDB                     PLUSW2          equ	4059	;# 
   243   000FDC                     PREINC2         equ	4060	;# 
   244   000FDD                     POSTDEC2        equ	4061	;# 
   245   000FDE                     POSTINC2        equ	4062	;# 
   246   000FDF                     INDF2           equ	4063	;# 
   247   000FE0                     BSR             equ	4064	;# 
   248   000FE1                     FSR1            equ	4065	;# 
   249   000FE1                     FSR1L           equ	4065	;# 
   250   000FE2                     FSR1H           equ	4066	;# 
   251   000FE3                     PLUSW1          equ	4067	;# 
   252   000FE4                     PREINC1         equ	4068	;# 
   253   000FE5                     POSTDEC1        equ	4069	;# 
   254   000FE6                     POSTINC1        equ	4070	;# 
   255   000FE7                     INDF1           equ	4071	;# 
   256   000FE8                     WREG            equ	4072	;# 
   257   000FE9                     FSR0            equ	4073	;# 
   258   000FE9                     FSR0L           equ	4073	;# 
   259   000FEA                     FSR0H           equ	4074	;# 
   260   000FEB                     PLUSW0          equ	4075	;# 
   261   000FEC                     PREINC0         equ	4076	;# 
   262   000FED                     POSTDEC0        equ	4077	;# 
   263   000FEE                     POSTINC0        equ	4078	;# 
   264   000FEF                     INDF0           equ	4079	;# 
   265   000FF0                     INTCON3         equ	4080	;# 
   266   000FF1                     INTCON2         equ	4081	;# 
   267   000FF2                     INTCON          equ	4082	;# 
   268   000FF3                     PROD            equ	4083	;# 
   269   000FF3                     PRODL           equ	4083	;# 
   270   000FF4                     PRODH           equ	4084	;# 
   271   000FF5                     TABLAT          equ	4085	;# 
   272   000FF6                     TBLPTR          equ	4086	;# 
   273   000FF6                     TBLPTRL         equ	4086	;# 
   274   000FF7                     TBLPTRH         equ	4087	;# 
   275   000FF8                     TBLPTRU         equ	4088	;# 
   276   000FF9                     PCLAT           equ	4089	;# 
   277   000FF9                     PC              equ	4089	;# 
   278   000FF9                     PCL             equ	4089	;# 
   279   000FFA                     PCLATH          equ	4090	;# 
   280   000FFB                     PCLATU          equ	4091	;# 
   281   000FFC                     STKPTR          equ	4092	;# 
   282   000FFD                     TOS             equ	4093	;# 
   283   000FFD                     TOSL            equ	4093	;# 
   284   000FFE                     TOSH            equ	4094	;# 
   285   000FFF                     TOSU            equ	4095	;# 
   286   000F62                     SPPDATA         equ	3938	;# 
   287   000F63                     SPPCFG          equ	3939	;# 
   288   000F64                     SPPEPS          equ	3940	;# 
   289   000F65                     SPPCON          equ	3941	;# 
   290   000F66                     UFRM            equ	3942	;# 
   291   000F66                     UFRML           equ	3942	;# 
   292   000F67                     UFRMH           equ	3943	;# 
   293   000F68                     UIR             equ	3944	;# 
   294   000F69                     UIE             equ	3945	;# 
   295   000F6A                     UEIR            equ	3946	;# 
   296   000F6B                     UEIE            equ	3947	;# 
   297   000F6C                     USTAT           equ	3948	;# 
   298   000F6D                     UCON            equ	3949	;# 
   299   000F6E                     UADDR           equ	3950	;# 
   300   000F6F                     UCFG            equ	3951	;# 
   301   000F70                     UEP0            equ	3952	;# 
   302   000F71                     UEP1            equ	3953	;# 
   303   000F72                     UEP2            equ	3954	;# 
   304   000F73                     UEP3            equ	3955	;# 
   305   000F74                     UEP4            equ	3956	;# 
   306   000F75                     UEP5            equ	3957	;# 
   307   000F76                     UEP6            equ	3958	;# 
   308   000F77                     UEP7            equ	3959	;# 
   309   000F78                     UEP8            equ	3960	;# 
   310   000F79                     UEP9            equ	3961	;# 
   311   000F7A                     UEP10           equ	3962	;# 
   312   000F7B                     UEP11           equ	3963	;# 
   313   000F7C                     UEP12           equ	3964	;# 
   314   000F7D                     UEP13           equ	3965	;# 
   315   000F7E                     UEP14           equ	3966	;# 
   316   000F7F                     UEP15           equ	3967	;# 
   317   000F80                     PORTA           equ	3968	;# 
   318   000F81                     PORTB           equ	3969	;# 
   319   000F82                     PORTC           equ	3970	;# 
   320   000F83                     PORTD           equ	3971	;# 
   321   000F84                     PORTE           equ	3972	;# 
   322   000F89                     LATA            equ	3977	;# 
   323   000F8A                     LATB            equ	3978	;# 
   324   000F8B                     LATC            equ	3979	;# 
   325   000F8C                     LATD            equ	3980	;# 
   326   000F8D                     LATE            equ	3981	;# 
   327   000F92                     TRISA           equ	3986	;# 
   328   000F92                     DDRA            equ	3986	;# 
   329   000F93                     TRISB           equ	3987	;# 
   330   000F93                     DDRB            equ	3987	;# 
   331   000F94                     TRISC           equ	3988	;# 
   332   000F94                     DDRC            equ	3988	;# 
   333   000F95                     TRISD           equ	3989	;# 
   334   000F95                     DDRD            equ	3989	;# 
   335   000F96                     TRISE           equ	3990	;# 
   336   000F96                     DDRE            equ	3990	;# 
   337   000F9B                     OSCTUNE         equ	3995	;# 
   338   000F9D                     PIE1            equ	3997	;# 
   339   000F9E                     PIR1            equ	3998	;# 
   340   000F9F                     IPR1            equ	3999	;# 
   341   000FA0                     PIE2            equ	4000	;# 
   342   000FA1                     PIR2            equ	4001	;# 
   343   000FA2                     IPR2            equ	4002	;# 
   344   000FA6                     EECON1          equ	4006	;# 
   345   000FA7                     EECON2          equ	4007	;# 
   346   000FA8                     EEDATA          equ	4008	;# 
   347   000FA9                     EEADR           equ	4009	;# 
   348   000FAB                     RCSTA           equ	4011	;# 
   349   000FAB                     RCSTA1          equ	4011	;# 
   350   000FAC                     TXSTA           equ	4012	;# 
   351   000FAC                     TXSTA1          equ	4012	;# 
   352   000FAD                     TXREG           equ	4013	;# 
   353   000FAD                     TXREG1          equ	4013	;# 
   354   000FAE                     RCREG           equ	4014	;# 
   355   000FAE                     RCREG1          equ	4014	;# 
   356   000FAF                     SPBRG           equ	4015	;# 
   357   000FAF                     SPBRG1          equ	4015	;# 
   358   000FB0                     SPBRGH          equ	4016	;# 
   359   000FB1                     T3CON           equ	4017	;# 
   360   000FB2                     TMR3            equ	4018	;# 
   361   000FB2                     TMR3L           equ	4018	;# 
   362   000FB3                     TMR3H           equ	4019	;# 
   363   000FB4                     CMCON           equ	4020	;# 
   364   000FB5                     CVRCON          equ	4021	;# 
   365   000FB6                     ECCP1AS         equ	4022	;# 
   366   000FB6                     CCP1AS          equ	4022	;# 
   367   000FB7                     ECCP1DEL        equ	4023	;# 
   368   000FB7                     CCP1DEL         equ	4023	;# 
   369   000FB8                     BAUDCON         equ	4024	;# 
   370   000FB8                     BAUDCTL         equ	4024	;# 
   371   000FBA                     CCP2CON         equ	4026	;# 
   372   000FBB                     CCPR2           equ	4027	;# 
   373   000FBB                     CCPR2L          equ	4027	;# 
   374   000FBC                     CCPR2H          equ	4028	;# 
   375   000FBD                     CCP1CON         equ	4029	;# 
   376   000FBD                     ECCP1CON        equ	4029	;# 
   377   000FBE                     CCPR1           equ	4030	;# 
   378   000FBE                     CCPR1L          equ	4030	;# 
   379   000FBF                     CCPR1H          equ	4031	;# 
   380   000FC0                     ADCON2          equ	4032	;# 
   381   000FC1                     ADCON1          equ	4033	;# 
   382   000FC2                     ADCON0          equ	4034	;# 
   383   000FC3                     ADRES           equ	4035	;# 
   384   000FC3                     ADRESL          equ	4035	;# 
   385   000FC4                     ADRESH          equ	4036	;# 
   386   000FC5                     SSPCON2         equ	4037	;# 
   387   000FC6                     SSPCON1         equ	4038	;# 
   388   000FC7                     SSPSTAT         equ	4039	;# 
   389   000FC8                     SSPADD          equ	4040	;# 
   390   000FC9                     SSPBUF          equ	4041	;# 
   391   000FCA                     T2CON           equ	4042	;# 
   392   000FCB                     PR2             equ	4043	;# 
   393   000FCB                     MEMCON          equ	4043	;# 
   394   000FCC                     TMR2            equ	4044	;# 
   395   000FCD                     T1CON           equ	4045	;# 
   396   000FCE                     TMR1            equ	4046	;# 
   397   000FCE                     TMR1L           equ	4046	;# 
   398   000FCF                     TMR1H           equ	4047	;# 
   399   000FD0                     RCON            equ	4048	;# 
   400   000FD1                     WDTCON          equ	4049	;# 
   401   000FD2                     HLVDCON         equ	4050	;# 
   402   000FD2                     LVDCON          equ	4050	;# 
   403   000FD3                     OSCCON          equ	4051	;# 
   404   000FD5                     T0CON           equ	4053	;# 
   405   000FD6                     TMR0            equ	4054	;# 
   406   000FD6                     TMR0L           equ	4054	;# 
   407   000FD7                     TMR0H           equ	4055	;# 
   408   000FD8                     STATUS          equ	4056	;# 
   409   000FD9                     FSR2            equ	4057	;# 
   410   000FD9                     FSR2L           equ	4057	;# 
   411   000FDA                     FSR2H           equ	4058	;# 
   412   000FDB                     PLUSW2          equ	4059	;# 
   413   000FDC                     PREINC2         equ	4060	;# 
   414   000FDD                     POSTDEC2        equ	4061	;# 
   415   000FDE                     POSTINC2        equ	4062	;# 
   416   000FDF                     INDF2           equ	4063	;# 
   417   000FE0                     BSR             equ	4064	;# 
   418   000FE1                     FSR1            equ	4065	;# 
   419   000FE1                     FSR1L           equ	4065	;# 
   420   000FE2                     FSR1H           equ	4066	;# 
   421   000FE3                     PLUSW1          equ	4067	;# 
   422   000FE4                     PREINC1         equ	4068	;# 
   423   000FE5                     POSTDEC1        equ	4069	;# 
   424   000FE6                     POSTINC1        equ	4070	;# 
   425   000FE7                     INDF1           equ	4071	;# 
   426   000FE8                     WREG            equ	4072	;# 
   427   000FE9                     FSR0            equ	4073	;# 
   428   000FE9                     FSR0L           equ	4073	;# 
   429   000FEA                     FSR0H           equ	4074	;# 
   430   000FEB                     PLUSW0          equ	4075	;# 
   431   000FEC                     PREINC0         equ	4076	;# 
   432   000FED                     POSTDEC0        equ	4077	;# 
   433   000FEE                     POSTINC0        equ	4078	;# 
   434   000FEF                     INDF0           equ	4079	;# 
   435   000FF0                     INTCON3         equ	4080	;# 
   436   000FF1                     INTCON2         equ	4081	;# 
   437   000FF2                     INTCON          equ	4082	;# 
   438   000FF3                     PROD            equ	4083	;# 
   439   000FF3                     PRODL           equ	4083	;# 
   440   000FF4                     PRODH           equ	4084	;# 
   441   000FF5                     TABLAT          equ	4085	;# 
   442   000FF6                     TBLPTR          equ	4086	;# 
   443   000FF6                     TBLPTRL         equ	4086	;# 
   444   000FF7                     TBLPTRH         equ	4087	;# 
   445   000FF8                     TBLPTRU         equ	4088	;# 
   446   000FF9                     PCLAT           equ	4089	;# 
   447   000FF9                     PC              equ	4089	;# 
   448   000FF9                     PCL             equ	4089	;# 
   449   000FFA                     PCLATH          equ	4090	;# 
   450   000FFB                     PCLATU          equ	4091	;# 
   451   000FFC                     STKPTR          equ	4092	;# 
   452   000FFD                     TOS             equ	4093	;# 
   453   000FFD                     TOSL            equ	4093	;# 
   454   000FFE                     TOSH            equ	4094	;# 
   455   000FFF                     TOSU            equ	4095	;# 
   456   000F62                     SPPDATA         equ	3938	;# 
   457   000F63                     SPPCFG          equ	3939	;# 
   458   000F64                     SPPEPS          equ	3940	;# 
   459   000F65                     SPPCON          equ	3941	;# 
   460   000F66                     UFRM            equ	3942	;# 
   461   000F66                     UFRML           equ	3942	;# 
   462   000F67                     UFRMH           equ	3943	;# 
   463   000F68                     UIR             equ	3944	;# 
   464   000F69                     UIE             equ	3945	;# 
   465   000F6A                     UEIR            equ	3946	;# 
   466   000F6B                     UEIE            equ	3947	;# 
   467   000F6C                     USTAT           equ	3948	;# 
   468   000F6D                     UCON            equ	3949	;# 
   469   000F6E                     UADDR           equ	3950	;# 
   470   000F6F                     UCFG            equ	3951	;# 
   471   000F70                     UEP0            equ	3952	;# 
   472   000F71                     UEP1            equ	3953	;# 
   473   000F72                     UEP2            equ	3954	;# 
   474   000F73                     UEP3            equ	3955	;# 
   475   000F74                     UEP4            equ	3956	;# 
   476   000F75                     UEP5            equ	3957	;# 
   477   000F76                     UEP6            equ	3958	;# 
   478   000F77                     UEP7            equ	3959	;# 
   479   000F78                     UEP8            equ	3960	;# 
   480   000F79                     UEP9            equ	3961	;# 
   481   000F7A                     UEP10           equ	3962	;# 
   482   000F7B                     UEP11           equ	3963	;# 
   483   000F7C                     UEP12           equ	3964	;# 
   484   000F7D                     UEP13           equ	3965	;# 
   485   000F7E                     UEP14           equ	3966	;# 
   486   000F7F                     UEP15           equ	3967	;# 
   487   000F80                     PORTA           equ	3968	;# 
   488   000F81                     PORTB           equ	3969	;# 
   489   000F82                     PORTC           equ	3970	;# 
   490   000F83                     PORTD           equ	3971	;# 
   491   000F84                     PORTE           equ	3972	;# 
   492   000F89                     LATA            equ	3977	;# 
   493   000F8A                     LATB            equ	3978	;# 
   494   000F8B                     LATC            equ	3979	;# 
   495   000F8C                     LATD            equ	3980	;# 
   496   000F8D                     LATE            equ	3981	;# 
   497   000F92                     TRISA           equ	3986	;# 
   498   000F92                     DDRA            equ	3986	;# 
   499   000F93                     TRISB           equ	3987	;# 
   500   000F93                     DDRB            equ	3987	;# 
   501   000F94                     TRISC           equ	3988	;# 
   502   000F94                     DDRC            equ	3988	;# 
   503   000F95                     TRISD           equ	3989	;# 
   504   000F95                     DDRD            equ	3989	;# 
   505   000F96                     TRISE           equ	3990	;# 
   506   000F96                     DDRE            equ	3990	;# 
   507   000F9B                     OSCTUNE         equ	3995	;# 
   508   000F9D                     PIE1            equ	3997	;# 
   509   000F9E                     PIR1            equ	3998	;# 
   510   000F9F                     IPR1            equ	3999	;# 
   511   000FA0                     PIE2            equ	4000	;# 
   512   000FA1                     PIR2            equ	4001	;# 
   513   000FA2                     IPR2            equ	4002	;# 
   514   000FA6                     EECON1          equ	4006	;# 
   515   000FA7                     EECON2          equ	4007	;# 
   516   000FA8                     EEDATA          equ	4008	;# 
   517   000FA9                     EEADR           equ	4009	;# 
   518   000FAB                     RCSTA           equ	4011	;# 
   519   000FAB                     RCSTA1          equ	4011	;# 
   520   000FAC                     TXSTA           equ	4012	;# 
   521   000FAC                     TXSTA1          equ	4012	;# 
   522   000FAD                     TXREG           equ	4013	;# 
   523   000FAD                     TXREG1          equ	4013	;# 
   524   000FAE                     RCREG           equ	4014	;# 
   525   000FAE                     RCREG1          equ	4014	;# 
   526   000FAF                     SPBRG           equ	4015	;# 
   527   000FAF                     SPBRG1          equ	4015	;# 
   528   000FB0                     SPBRGH          equ	4016	;# 
   529   000FB1                     T3CON           equ	4017	;# 
   530   000FB2                     TMR3            equ	4018	;# 
   531   000FB2                     TMR3L           equ	4018	;# 
   532   000FB3                     TMR3H           equ	4019	;# 
   533   000FB4                     CMCON           equ	4020	;# 
   534   000FB5                     CVRCON          equ	4021	;# 
   535   000FB6                     ECCP1AS         equ	4022	;# 
   536   000FB6                     CCP1AS          equ	4022	;# 
   537   000FB7                     ECCP1DEL        equ	4023	;# 
   538   000FB7                     CCP1DEL         equ	4023	;# 
   539   000FB8                     BAUDCON         equ	4024	;# 
   540   000FB8                     BAUDCTL         equ	4024	;# 
   541   000FBA                     CCP2CON         equ	4026	;# 
   542   000FBB                     CCPR2           equ	4027	;# 
   543   000FBB                     CCPR2L          equ	4027	;# 
   544   000FBC                     CCPR2H          equ	4028	;# 
   545   000FBD                     CCP1CON         equ	4029	;# 
   546   000FBD                     ECCP1CON        equ	4029	;# 
   547   000FBE                     CCPR1           equ	4030	;# 
   548   000FBE                     CCPR1L          equ	4030	;# 
   549   000FBF                     CCPR1H          equ	4031	;# 
   550   000FC0                     ADCON2          equ	4032	;# 
   551   000FC1                     ADCON1          equ	4033	;# 
   552   000FC2                     ADCON0          equ	4034	;# 
   553   000FC3                     ADRES           equ	4035	;# 
   554   000FC3                     ADRESL          equ	4035	;# 
   555   000FC4                     ADRESH          equ	4036	;# 
   556   000FC5                     SSPCON2         equ	4037	;# 
   557   000FC6                     SSPCON1         equ	4038	;# 
   558   000FC7                     SSPSTAT         equ	4039	;# 
   559   000FC8                     SSPADD          equ	4040	;# 
   560   000FC9                     SSPBUF          equ	4041	;# 
   561   000FCA                     T2CON           equ	4042	;# 
   562   000FCB                     PR2             equ	4043	;# 
   563   000FCB                     MEMCON          equ	4043	;# 
   564   000FCC                     TMR2            equ	4044	;# 
   565   000FCD                     T1CON           equ	4045	;# 
   566   000FCE                     TMR1            equ	4046	;# 
   567   000FCE                     TMR1L           equ	4046	;# 
   568   000FCF                     TMR1H           equ	4047	;# 
   569   000FD0                     RCON            equ	4048	;# 
   570   000FD1                     WDTCON          equ	4049	;# 
   571   000FD2                     HLVDCON         equ	4050	;# 
   572   000FD2                     LVDCON          equ	4050	;# 
   573   000FD3                     OSCCON          equ	4051	;# 
   574   000FD5                     T0CON           equ	4053	;# 
   575   000FD6                     TMR0            equ	4054	;# 
   576   000FD6                     TMR0L           equ	4054	;# 
   577   000FD7                     TMR0H           equ	4055	;# 
   578   000FD8                     STATUS          equ	4056	;# 
   579   000FD9                     FSR2            equ	4057	;# 
   580   000FD9                     FSR2L           equ	4057	;# 
   581   000FDA                     FSR2H           equ	4058	;# 
   582   000FDB                     PLUSW2          equ	4059	;# 
   583   000FDC                     PREINC2         equ	4060	;# 
   584   000FDD                     POSTDEC2        equ	4061	;# 
   585   000FDE                     POSTINC2        equ	4062	;# 
   586   000FDF                     INDF2           equ	4063	;# 
   587   000FE0                     BSR             equ	4064	;# 
   588   000FE1                     FSR1            equ	4065	;# 
   589   000FE1                     FSR1L           equ	4065	;# 
   590   000FE2                     FSR1H           equ	4066	;# 
   591   000FE3                     PLUSW1          equ	4067	;# 
   592   000FE4                     PREINC1         equ	4068	;# 
   593   000FE5                     POSTDEC1        equ	4069	;# 
   594   000FE6                     POSTINC1        equ	4070	;# 
   595   000FE7                     INDF1           equ	4071	;# 
   596   000FE8                     WREG            equ	4072	;# 
   597   000FE9                     FSR0            equ	4073	;# 
   598   000FE9                     FSR0L           equ	4073	;# 
   599   000FEA                     FSR0H           equ	4074	;# 
   600   000FEB                     PLUSW0          equ	4075	;# 
   601   000FEC                     PREINC0         equ	4076	;# 
   602   000FED                     POSTDEC0        equ	4077	;# 
   603   000FEE                     POSTINC0        equ	4078	;# 
   604   000FEF                     INDF0           equ	4079	;# 
   605   000FF0                     INTCON3         equ	4080	;# 
   606   000FF1                     INTCON2         equ	4081	;# 
   607   000FF2                     INTCON          equ	4082	;# 
   608   000FF3                     PROD            equ	4083	;# 
   609   000FF3                     PRODL           equ	4083	;# 
   610   000FF4                     PRODH           equ	4084	;# 
   611   000FF5                     TABLAT          equ	4085	;# 
   612   000FF6                     TBLPTR          equ	4086	;# 
   613   000FF6                     TBLPTRL         equ	4086	;# 
   614   000FF7                     TBLPTRH         equ	4087	;# 
   615   000FF8                     TBLPTRU         equ	4088	;# 
   616   000FF9                     PCLAT           equ	4089	;# 
   617   000FF9                     PC              equ	4089	;# 
   618   000FF9                     PCL             equ	4089	;# 
   619   000FFA                     PCLATH          equ	4090	;# 
   620   000FFB                     PCLATU          equ	4091	;# 
   621   000FFC                     STKPTR          equ	4092	;# 
   622   000FFD                     TOS             equ	4093	;# 
   623   000FFD                     TOSL            equ	4093	;# 
   624   000FFE                     TOSH            equ	4094	;# 
   625   000FFF                     TOSU            equ	4095	;# 
   626                           
   627                           	psect	idataCOMRAM
   628   001BD4                     __pidataCOMRAM:
   629                           	callstack 0
   630                           
   631                           ;initializer for _interrupt_timer0
   632   001BD4  01                 	db	1
   633   000F95                     _TRISD          set	3989
   634   000F83                     _PORTDbits      set	3971
   635   000F83                     _PORTD          set	3971
   636   000FB6                     _ECCP1AS        set	4022
   637   000FB7                     _ECCP1DEL       set	4023
   638   000F93                     _TRISBbits      set	3987
   639   000FBE                     _CCPR1L         set	4030
   640   000FBD                     _CCP1CONbits    set	4029
   641   000FCB                     _PR2            set	4043
   642   000FBD                     _CCP1CON        set	4029
   643   000FCA                     _T2CONbits      set	4042
   644   000FD3                     _OSCCON         set	4051
   645   000FC3                     _ADRESL         set	4035
   646   000FC4                     _ADRESH         set	4036
   647   000FC2                     _ADCON0bits     set	4034
   648   000FC0                     _ADCON2         set	4032
   649   000FC1                     _ADCON1         set	4033
   650   000F92                     _TRISA          set	3986
   651   000FCC                     _TMR2           set	4044
   652   000F9F                     _IPR1bits       set	3999
   653   000F9D                     _PIE1bits       set	3997
   654   000FCA                     _T2CON          set	4042
   655   000FD7                     _TMR0H          set	4055
   656   000FD6                     _TMR0L          set	4054
   657   000FD5                     _T0CONbits      set	4053
   658   000FD5                     _T0CON          set	4053
   659   000F8A                     _LATB           set	3978
   660   000F93                     _TRISB          set	3987
   661   000F94                     _TRISCbits      set	3988
   662   000F8B                     _LATCbits       set	3979
   663   000F9E                     _PIR1bits       set	3998
   664   000F8A                     _LATBbits       set	3978
   665   000FF2                     _INTCONbits     set	4082
   666                           
   667                           ; #config settings
   668                           
   669                           	psect	cinit
   670   001B2C                     __pcinit:
   671                           	callstack 0
   672   001B2C                     start_initialization:
   673                           	callstack 0
   674   001B2C                     __initialization:
   675                           	callstack 0
   676                           
   677                           ; Initialize objects allocated to COMRAM (1 bytes)
   678                           ; load TBLPTR registers with __pidataCOMRAM
   679   001B2C  0ED4               	movlw	low __pidataCOMRAM
   680   001B2E  6EF6               	movwf	tblptrl,c
   681   001B30  0E1B               	movlw	high __pidataCOMRAM
   682   001B32  6EF7               	movwf	tblptrh,c
   683   001B34  0E00               	movlw	low (__pidataCOMRAM shr (0+16))
   684   001B36  6EF8               	movwf	tblptru,c
   685   001B38  0009               	tblrd		*+	;fetch initializer
   686   001B3A  CFF5 F05A          	movff	tablat,__pdataCOMRAM
   687                           
   688                           ; Clear objects allocated to BANK0 (2 bytes)
   689   001B3E  0100               	movlb	0
   690   001B40  6B7A               	clrf	(__pbssBANK0+1)& (0+255),b
   691   001B42  6B79               	clrf	__pbssBANK0& (0+255),b
   692                           
   693                           ; Clear objects allocated to COMRAM (3 bytes)
   694   001B44  6A59               	clrf	(__pbssCOMRAM+2)& (0+255),c
   695   001B46  6A58               	clrf	(__pbssCOMRAM+1)& (0+255),c
   696   001B48  6A57               	clrf	__pbssCOMRAM& (0+255),c
   697   001B4A                     end_of_initialization:
   698                           	callstack 0
   699   001B4A                     __end_of__initialization:
   700                           	callstack 0
   701   001B4A  905B               	bcf	int$flags,0,c	;clear compiler interrupt flag (level 1)
   702   001B4C  925B               	bcf	int$flags,1,c	;clear compiler interrupt flag (level 2)
   703   001B4E  0100               	movlb	0
   704   001B50  EFD2  F00D         	goto	_main	;jump to C main() function
   705                           
   706                           	psect	bssCOMRAM
   707   000057                     __pbssCOMRAM:
   708                           	callstack 0
   709   000057                     _turn_ctrl:
   710                           	callstack 0
   711   000057                     	ds	1
   712   000058                     _rpm_cmp:
   713                           	callstack 0
   714   000058                     	ds	1
   715   000059                     _rpm_ckp:
   716                           	callstack 0
   717   000059                     	ds	1
   718                           
   719                           	psect	dataCOMRAM
   720   00005A                     __pdataCOMRAM:
   721                           	callstack 0
   722   00005A                     _interrupt_timer0:
   723                           	callstack 0
   724   00005A                     	ds	1
   725                           
   726                           	psect	bssBANK0
   727   000079                     __pbssBANK0:
   728                           	callstack 0
   729   000079                     _errno:
   730                           	callstack 0
   731   000079                     	ds	2
   732                           
   733                           	psect	cstackBANK0
   734   000060                     __pcstackBANK0:
   735                           	callstack 0
   736   000060                     ?_round:
   737                           	callstack 0
   738   000060                     round@x:
   739                           	callstack 0
   740                           
   741                           ; 4 bytes @ 0x0
   742   000060                     	ds	4
   743   000064                     round@f:
   744                           	callstack 0
   745                           
   746                           ; 4 bytes @ 0x4
   747   000064                     	ds	4
   748   000068                     ??_pwm1_ini:
   749                           
   750                           ; 1 bytes @ 0x8
   751   000068                     	ds	2
   752   00006A                     _pwm1_ini$1539:
   753                           	callstack 0
   754                           
   755                           ; 4 bytes @ 0xA
   756   00006A                     	ds	4
   757   00006E                     _pwm1_ini$1540:
   758                           	callstack 0
   759                           
   760                           ; 4 bytes @ 0xE
   761   00006E                     	ds	4
   762   000072                     _pwm1_ini$1541:
   763                           	callstack 0
   764                           
   765                           ; 4 bytes @ 0x12
   766   000072                     	ds	4
   767   000076                     pwm1_ini@pr_var:
   768                           	callstack 0
   769                           
   770                           ; 1 bytes @ 0x16
   771   000076                     	ds	1
   772   000077                     pwm1_ini@cycle:
   773                           	callstack 0
   774                           
   775                           ; 2 bytes @ 0x17
   776   000077                     	ds	2
   777                           
   778                           	psect	cstackCOMRAM
   779   000001                     __pcstackCOMRAM:
   780                           	callstack 0
   781   000001                     i2timer0_write@timer_value:
   782                           	callstack 0
   783                           
   784                           ; 2 bytes @ 0x0
   785   000001                     	ds	2
   786   000003                     ??_ISR:
   787   000003                     
   788                           ; 1 bytes @ 0x2
   789   000003                     	ds	1
   790   000004                     ?___lwdiv:
   791                           	callstack 0
   792   000004                     ?___xxtofl:
   793                           	callstack 0
   794   000004                     timer0_write@timer_value:
   795                           	callstack 0
   796   000004                     ___lwdiv@dividend:
   797                           	callstack 0
   798   000004                     ___fleq@ff1:
   799                           	callstack 0
   800   000004                     ___xxtofl@val:
   801                           	callstack 0
   802   000004                     
   803                           ; 1 bytes @ 0x3
   804   000004                     	ds	2
   805   000006                     ___lwdiv@divisor:
   806                           	callstack 0
   807   000006                     
   808                           ; 1 bytes @ 0x5
   809   000006                     	ds	2
   810   000008                     ___lwdiv@quotient:
   811                           	callstack 0
   812   000008                     ___fleq@ff2:
   813                           	callstack 0
   814   000008                     ??___xxtofl:
   815                           
   816                           ; 1 bytes @ 0x7
   817   000008                     	ds	2
   818   00000A                     ___lwdiv@counter:
   819                           	callstack 0
   820                           
   821                           ; 1 bytes @ 0x9
   822   00000A                     	ds	1
   823   00000B                     ms_time@ms:
   824                           	callstack 0
   825   00000B                     us_time@us:
   826                           	callstack 0
   827                           
   828                           ; 2 bytes @ 0xA
   829   00000B                     	ds	1
   830   00000C                     ___xxtofl@sign:
   831                           	callstack 0
   832   00000C                     ??___fleq:
   833                           
   834                           ; 1 bytes @ 0xB
   835   00000C                     	ds	1
   836   00000D                     ___xxtofl@exp:
   837                           	callstack 0
   838   00000D                     ms_time@tms:
   839                           	callstack 0
   840   00000D                     us_time@tus:
   841                           	callstack 0
   842   00000D                     
   843                           ; 1 bytes @ 0xC
   844   00000D                     	ds	1
   845   00000E                     ___xxtofl@arg:
   846                           	callstack 0
   847                           
   848                           ; 4 bytes @ 0xD
   849   00000E                     	ds	1
   850   00000F                     ms_time@sms:
   851                           	callstack 0
   852   00000F                     us_time@sus:
   853                           	callstack 0
   854                           
   855                           ; 2 bytes @ 0xE
   856   00000F                     	ds	1
   857   000010                     frexp@value:
   858                           	callstack 0
   859                           
   860                           ; 4 bytes @ 0xF
   861   000010                     	ds	1
   862   000011                     lcd_com@cmd:
   863                           	callstack 0
   864   000011                     
   865                           ; 1 bytes @ 0x10
   866   000011                     	ds	1
   867   000012                     ?___fladd:
   868                           	callstack 0
   869   000012                     ___fladd@b:
   870                           	callstack 0
   871   000012                     
   872                           ; 1 bytes @ 0x11
   873   000012                     	ds	2
   874   000014                     frexp@eptr:
   875                           	callstack 0
   876                           
   877                           ; 1 bytes @ 0x13
   878   000014                     	ds	1
   879   000015                     ??_frexp:
   880                           
   881                           ; 1 bytes @ 0x14
   882   000015                     	ds	1
   883   000016                     ___fladd@a:
   884                           	callstack 0
   885                           
   886                           ; 4 bytes @ 0x15
   887   000016                     	ds	4
   888   00001A                     ??___fladd:
   889                           
   890                           ; 1 bytes @ 0x19
   891   00001A                     	ds	4
   892   00001E                     ___fladd@signs:
   893                           	callstack 0
   894                           
   895                           ; 1 bytes @ 0x1D
   896   00001E                     	ds	1
   897   00001F                     ___fladd@aexp:
   898                           	callstack 0
   899                           
   900                           ; 1 bytes @ 0x1E
   901   00001F                     	ds	1
   902   000020                     ___fladd@bexp:
   903                           	callstack 0
   904                           
   905                           ; 1 bytes @ 0x1F
   906   000020                     	ds	1
   907   000021                     ___fladd@grs:
   908                           	callstack 0
   909                           
   910                           ; 1 bytes @ 0x20
   911   000021                     	ds	1
   912   000022                     ?___flmul:
   913                           	callstack 0
   914   000022                     ___flmul@b:
   915                           	callstack 0
   916                           
   917                           ; 4 bytes @ 0x21
   918   000022                     	ds	4
   919   000026                     ___flmul@a:
   920                           	callstack 0
   921                           
   922                           ; 4 bytes @ 0x25
   923   000026                     	ds	4
   924   00002A                     ??___flmul:
   925                           
   926                           ; 1 bytes @ 0x29
   927   00002A                     	ds	4
   928   00002E                     ___flmul@sign:
   929                           	callstack 0
   930                           
   931                           ; 1 bytes @ 0x2D
   932   00002E                     	ds	1
   933   00002F                     ___flmul@grs:
   934                           	callstack 0
   935                           
   936                           ; 4 bytes @ 0x2E
   937   00002F                     	ds	4
   938   000033                     ___flmul@aexp:
   939                           	callstack 0
   940                           
   941                           ; 1 bytes @ 0x32
   942   000033                     	ds	1
   943   000034                     ___flmul@bexp:
   944                           	callstack 0
   945                           
   946                           ; 1 bytes @ 0x33
   947   000034                     	ds	1
   948   000035                     ___flmul@prod:
   949                           	callstack 0
   950                           
   951                           ; 4 bytes @ 0x34
   952   000035                     	ds	4
   953   000039                     ___flmul@temp:
   954                           	callstack 0
   955                           
   956                           ; 2 bytes @ 0x38
   957   000039                     	ds	2
   958   00003B                     ?___fltol:
   959                           	callstack 0
   960   00003B                     ___fltol@f1:
   961                           	callstack 0
   962                           
   963                           ; 4 bytes @ 0x3A
   964   00003B                     	ds	4
   965   00003F                     ??___fltol:
   966                           
   967                           ; 1 bytes @ 0x3E
   968   00003F                     	ds	4
   969   000043                     ___fltol@sign1:
   970                           	callstack 0
   971                           
   972                           ; 1 bytes @ 0x42
   973   000043                     	ds	1
   974   000044                     ___fltol@exp1:
   975                           	callstack 0
   976                           
   977                           ; 1 bytes @ 0x43
   978   000044                     	ds	1
   979   000045                     ?_trunc:
   980                           	callstack 0
   981   000045                     trunc@x:
   982                           	callstack 0
   983                           
   984                           ; 4 bytes @ 0x44
   985   000045                     	ds	4
   986   000049                     trunc@i:
   987                           	callstack 0
   988   000049                     
   989                           ; 1 bytes @ 0x48
   990   000049                     	ds	4
   991   00004D                     trunc@expon:
   992                           	callstack 0
   993                           
   994                           ; 2 bytes @ 0x4C
   995   00004D                     	ds	2
   996   00004F                     ?___flsub:
   997                           	callstack 0
   998   00004F                     ___flsub@b:
   999                           	callstack 0
  1000                           
  1001                           ; 4 bytes @ 0x4E
  1002   00004F                     	ds	4
  1003   000053                     ___flsub@a:
  1004                           	callstack 0
  1005                           
  1006                           ; 4 bytes @ 0x52
  1007   000053                     	ds	4
  1008   000057                     
  1009                           ; 1 bytes @ 0x56
  1010 ;;
  1011 ;;Main: autosize = 0, tempsize = 0, incstack = 0, save=0
  1012 ;;
  1013 ;; *************** function _main *****************
  1014 ;; Defined at:
  1015 ;;		line 71 in file "main.c"
  1016 ;; Parameters:    Size  Location     Type
  1017 ;;		None
  1018 ;; Auto vars:     Size  Location     Type
  1019 ;;		None
  1020 ;; Return value:  Size  Location     Type
  1021 ;;                  1    wreg      void 
  1022 ;; Registers used:
  1023 ;;		wreg, fsr2l, fsr2h, status,2, status,0, prodl, prodh, cstack
  1024 ;; Tracked objects:
  1025 ;;		On entry : 0/0
  1026 ;;		On exit  : 0/0
  1027 ;;		Unchanged: 0/0
  1028 ;; Data sizes:     COMRAM   BANK0   BANK1   BANK2   BANK3   BANK4   BANK5   BANK6   BANK7
  1029 ;;      Params:         0       0       0       0       0       0       0       0       0
  1030 ;;      Locals:         0       0       0       0       0       0       0       0       0
  1031 ;;      Temps:          0       0       0       0       0       0       0       0       0
  1032 ;;      Totals:         0       0       0       0       0       0       0       0       0
  1033 ;;Total ram usage:        0 bytes
  1034 ;; Hardware stack levels required when called: 8
  1035 ;; This function calls:
  1036 ;;		_pic_ini
  1037 ;; This function is called by:
  1038 ;;		Startup code after reset
  1039 ;; This function uses a non-reentrant model
  1040 ;;
  1041                           
  1042                           	psect	text0
  1043   001BA4                     __ptext0:
  1044                           	callstack 0
  1045   001BA4                     _main:
  1046                           	callstack 23
  1047   001BA4                     
  1048                           ;main.c: 73: pic_ini();
  1049   001BA4  ECAA  F00D         	call	_pic_ini	;wreg free
  1050   001BA8                     l2757:
  1051                           
  1052                           ;main.c: 75: {;main.c: 76: __nop();
  1053   001BA8  0000               	nop	
  1054   001BAA  EFD4  F00D         	goto	l2757
  1055   001BAE  EF07  F000         	goto	start
  1056   001BB2                     __end_of_main:
  1057                           	callstack 0
  1058                           
  1059 ;; *************** function _pic_ini *****************
  1060 ;; Defined at:
  1061 ;;		line 14 in file "hardware.c"
  1062 ;; Parameters:    Size  Location     Type
  1063 ;;		None
  1064 ;; Auto vars:     Size  Location     Type
  1065 ;;		None
  1066 ;; Return value:  Size  Location     Type
  1067 ;;                  1    wreg      void 
  1068 ;; Registers used:
  1069 ;;		wreg, fsr2l, fsr2h, status,2, status,0, prodl, prodh, cstack
  1070 ;; Tracked objects:
  1071 ;;		On entry : 0/0
  1072 ;;		On exit  : 0/0
  1073 ;;		Unchanged: 0/0
  1074 ;; Data sizes:     COMRAM   BANK0   BANK1   BANK2   BANK3   BANK4   BANK5   BANK6   BANK7
  1075 ;;      Params:         0       0       0       0       0       0       0       0       0
  1076 ;;      Locals:         0       0       0       0       0       0       0       0       0
  1077 ;;      Temps:          0       0       0       0       0       0       0       0       0
  1078 ;;      Totals:         0       0       0       0       0       0       0       0       0
  1079 ;;Total ram usage:        0 bytes
  1080 ;; Hardware stack levels used: 1
  1081 ;; Hardware stack levels required when called: 7
  1082 ;; This function calls:
  1083 ;;		_adc_ini
  1084 ;;		_lcd_com
  1085 ;;		_lcd_ini
  1086 ;;		_pwm1_ini
  1087 ;;		_timer0_ini
  1088 ;;		_timer2_ini
  1089 ;; This function is called by:
  1090 ;;		_main
  1091 ;; This function uses a non-reentrant model
  1092 ;;
  1093                           
  1094                           	psect	text1
  1095   001B54                     __ptext1:
  1096                           	callstack 0
  1097   001B54                     _pic_ini:
  1098                           	callstack 23
  1099   001B54                     
  1100                           ;hardware.c: 18: INTCONbits.GIE = 1;
  1101   001B54  8EF2               	bsf	242,7,c	;volatile
  1102                           
  1103                           ;hardware.c: 19: INTCONbits.PEIE_GIEL = 1;
  1104   001B56  8CF2               	bsf	242,6,c	;volatile
  1105   001B58                     
  1106                           ;hardware.c: 23: lcd_ini(); lcd_com(0x0C);
  1107   001B58  EC45  F00D         	call	_lcd_ini	;wreg free
  1108   001B5C  0E0C               	movlw	12
  1109   001B5E  EC64  F00B         	call	_lcd_com
  1110   001B62                     
  1111                           ;hardware.c: 24: adc_ini();
  1112   001B62  ECC8  F00D         	call	_adc_ini	;wreg free
  1113   001B66                     
  1114                           ;hardware.c: 25: timer0_ini();
  1115   001B66  ECBD  F00D         	call	_timer0_ini	;wreg free
  1116   001B6A                     
  1117                           ;hardware.c: 26: timer2_ini();
  1118   001B6A  ECD9  F00D         	call	_timer2_ini	;wreg free
  1119   001B6E                     
  1120                           ;hardware.c: 27: pwm1_ini();
  1121   001B6E  EC49  F009         	call	_pwm1_ini	;wreg free
  1122   001B72                     
  1123                           ;hardware.c: 31: TRISCbits.RC2 = 0;
  1124   001B72  9494               	bcf	148,2,c	;volatile
  1125   001B74                     
  1126                           ;hardware.c: 32: TRISB = 0x00;
  1127   001B74  6A93               	clrf	147,c	;volatile
  1128   001B76                     
  1129                           ;hardware.c: 33: LATB = 0xFF;
  1130   001B76  688A               	setf	138,c	;volatile
  1131   001B78  0012               	return		;funcret
  1132   001B7A                     __end_of_pic_ini:
  1133                           	callstack 0
  1134                           
  1135 ;; *************** function _timer2_ini *****************
  1136 ;; Defined at:
  1137 ;;		line 58 in file "hardware.c"
  1138 ;; Parameters:    Size  Location     Type
  1139 ;;		None
  1140 ;; Auto vars:     Size  Location     Type
  1141 ;;		None
  1142 ;; Return value:  Size  Location     Type
  1143 ;;                  1    wreg      void 
  1144 ;; Registers used:
  1145 ;;		wreg, status,2
  1146 ;; Tracked objects:
  1147 ;;		On entry : 0/0
  1148 ;;		On exit  : 0/0
  1149 ;;		Unchanged: 0/0
  1150 ;; Data sizes:     COMRAM   BANK0   BANK1   BANK2   BANK3   BANK4   BANK5   BANK6   BANK7
  1151 ;;      Params:         0       0       0       0       0       0       0       0       0
  1152 ;;      Locals:         0       0       0       0       0       0       0       0       0
  1153 ;;      Temps:          0       0       0       0       0       0       0       0       0
  1154 ;;      Totals:         0       0       0       0       0       0       0       0       0
  1155 ;;Total ram usage:        0 bytes
  1156 ;; Hardware stack levels used: 1
  1157 ;; Hardware stack levels required when called: 2
  1158 ;; This function calls:
  1159 ;;		Nothing
  1160 ;; This function is called by:
  1161 ;;		_pic_ini
  1162 ;; This function uses a non-reentrant model
  1163 ;;
  1164                           
  1165                           	psect	text2
  1166   001BB2                     __ptext2:
  1167                           	callstack 0
  1168   001BB2                     _timer2_ini:
  1169                           	callstack 27
  1170   001BB2                     
  1171                           ;hardware.c: 60: T2CON = 0x07;
  1172   001BB2  0E07               	movlw	7
  1173   001BB4  6ECA               	movwf	202,c	;volatile
  1174   001BB6                     
  1175                           ;hardware.c: 61: PIE1bits.TMR2IE = 1;
  1176   001BB6  829D               	bsf	157,1,c	;volatile
  1177   001BB8                     
  1178                           ;hardware.c: 62: PIR1bits.TMR2IF = 0;
  1179   001BB8  929E               	bcf	158,1,c	;volatile
  1180   001BBA                     
  1181                           ;hardware.c: 63: IPR1bits.TMR2IP = 1;
  1182   001BBA  829F               	bsf	159,1,c	;volatile
  1183   001BBC                     
  1184                           ;hardware.c: 64: TMR2 = 0;
  1185   001BBC  6ACC               	clrf	204,c	;volatile
  1186   001BBE  0012               	return		;funcret
  1187   001BC0                     __end_of_timer2_ini:
  1188                           	callstack 0
  1189                           
  1190 ;; *************** function _timer0_ini *****************
  1191 ;; Defined at:
  1192 ;;		line 38 in file "hardware.c"
  1193 ;; Parameters:    Size  Location     Type
  1194 ;;		None
  1195 ;; Auto vars:     Size  Location     Type
  1196 ;;		None
  1197 ;; Return value:  Size  Location     Type
  1198 ;;                  1    wreg      void 
  1199 ;; Registers used:
  1200 ;;		wreg, status,2, cstack
  1201 ;; Tracked objects:
  1202 ;;		On entry : 0/0
  1203 ;;		On exit  : 0/0
  1204 ;;		Unchanged: 0/0
  1205 ;; Data sizes:     COMRAM   BANK0   BANK1   BANK2   BANK3   BANK4   BANK5   BANK6   BANK7
  1206 ;;      Params:         0       0       0       0       0       0       0       0       0
  1207 ;;      Locals:         0       0       0       0       0       0       0       0       0
  1208 ;;      Temps:          0       0       0       0       0       0       0       0       0
  1209 ;;      Totals:         0       0       0       0       0       0       0       0       0
  1210 ;;Total ram usage:        0 bytes
  1211 ;; Hardware stack levels used: 1
  1212 ;; Hardware stack levels required when called: 3
  1213 ;; This function calls:
  1214 ;;		_timer0_write
  1215 ;; This function is called by:
  1216 ;;		_pic_ini
  1217 ;; This function uses a non-reentrant model
  1218 ;;
  1219                           
  1220                           	psect	text3
  1221   001B7A                     __ptext3:
  1222                           	callstack 0
  1223   001B7A                     _timer0_ini:
  1224                           	callstack 26
  1225   001B7A                     
  1226                           ;hardware.c: 40: T0CON = 0x90;
  1227   001B7A  0E90               	movlw	144
  1228   001B7C  6ED5               	movwf	213,c	;volatile
  1229   001B7E                     
  1230                           ;hardware.c: 41: T0CONbits.TMR0ON = 1;
  1231   001B7E  8ED5               	bsf	213,7,c	;volatile
  1232   001B80                     
  1233                           ;hardware.c: 42: INTCONbits.TMR0IE = 1;
  1234   001B80  8AF2               	bsf	242,5,c	;volatile
  1235   001B82                     
  1236                           ;hardware.c: 44: timer0_write(0xFE0C);
  1237   001B82  0EFE               	movlw	254
  1238   001B84  6E05               	movwf	(timer0_write@timer_value+1)^0,c
  1239   001B86  0E0C               	movlw	12
  1240   001B88  6E04               	movwf	timer0_write@timer_value^0,c
  1241   001B8A  ECE0  F00D         	call	_timer0_write	;wreg free
  1242   001B8E  0012               	return		;funcret
  1243   001B90                     __end_of_timer0_ini:
  1244                           	callstack 0
  1245                           
  1246 ;; *************** function _timer0_write *****************
  1247 ;; Defined at:
  1248 ;;		line 48 in file "hardware.c"
  1249 ;; Parameters:    Size  Location     Type
  1250 ;;  timer_value     2    3[COMRAM] unsigned int 
  1251 ;; Auto vars:     Size  Location     Type
  1252 ;;		None
  1253 ;; Return value:  Size  Location     Type
  1254 ;;                  1    wreg      void 
  1255 ;; Registers used:
  1256 ;;		wreg, status,2
  1257 ;; Tracked objects:
  1258 ;;		On entry : 0/0
  1259 ;;		On exit  : 0/0
  1260 ;;		Unchanged: 0/0
  1261 ;; Data sizes:     COMRAM   BANK0   BANK1   BANK2   BANK3   BANK4   BANK5   BANK6   BANK7
  1262 ;;      Params:         2       0       0       0       0       0       0       0       0
  1263 ;;      Locals:         0       0       0       0       0       0       0       0       0
  1264 ;;      Temps:          0       0       0       0       0       0       0       0       0
  1265 ;;      Totals:         2       0       0       0       0       0       0       0       0
  1266 ;;Total ram usage:        2 bytes
  1267 ;; Hardware stack levels used: 1
  1268 ;; Hardware stack levels required when called: 2
  1269 ;; This function calls:
  1270 ;;		Nothing
  1271 ;; This function is called by:
  1272 ;;		_timer0_ini
  1273 ;; This function uses a non-reentrant model
  1274 ;;
  1275                           
  1276                           	psect	text4
  1277   001BC0                     __ptext4:
  1278                           	callstack 0
  1279   001BC0                     _timer0_write:
  1280                           	callstack 26
  1281   001BC0                     
  1282                           ;hardware.c: 50: TMR0L = (timer_value & 0x00FF);
  1283   001BC0  C004  FFD6         	movff	timer0_write@timer_value,4054	;volatile
  1284   001BC4                     
  1285                           ;hardware.c: 51: TMR0H = (timer_value >> 8) & 0x00FF;
  1286   001BC4  5005               	movf	(timer0_write@timer_value+1)^0,w,c
  1287   001BC6  6ED7               	movwf	215,c	;volatile
  1288   001BC8  0012               	return		;funcret
  1289   001BCA                     __end_of_timer0_write:
  1290                           	callstack 0
  1291                           
  1292 ;; *************** function _pwm1_ini *****************
  1293 ;; Defined at:
  1294 ;;		line 91 in file "hardware.c"
  1295 ;; Parameters:    Size  Location     Type
  1296 ;;		None
  1297 ;; Auto vars:     Size  Location     Type
  1298 ;;  cycle           2   23[BANK0 ] unsigned int 
  1299 ;;  pr_var          1   22[BANK0 ] unsigned char 
  1300 ;; Return value:  Size  Location     Type
  1301 ;;                  1    wreg      void 
  1302 ;; Registers used:
  1303 ;;		wreg, fsr2l, fsr2h, status,2, status,0, prodl, prodh, cstack
  1304 ;; Tracked objects:
  1305 ;;		On entry : 0/0
  1306 ;;		On exit  : 0/0
  1307 ;;		Unchanged: 0/0
  1308 ;; Data sizes:     COMRAM   BANK0   BANK1   BANK2   BANK3   BANK4   BANK5   BANK6   BANK7
  1309 ;;      Params:         0       0       0       0       0       0       0       0       0
  1310 ;;      Locals:         0      15       0       0       0       0       0       0       0
  1311 ;;      Temps:          0       2       0       0       0       0       0       0       0
  1312 ;;      Totals:         0      17       0       0       0       0       0       0       0
  1313 ;;Total ram usage:       17 bytes
  1314 ;; Hardware stack levels used: 1
  1315 ;; Hardware stack levels required when called: 6
  1316 ;; This function calls:
  1317 ;;		___fladd
  1318 ;;		___flmul
  1319 ;;		___fltol
  1320 ;;		___xxtofl
  1321 ;;		_round
  1322 ;; This function is called by:
  1323 ;;		_pic_ini
  1324 ;; This function uses a non-reentrant model
  1325 ;;
  1326                           
  1327                           	psect	text5
  1328   001292                     __ptext5:
  1329                           	callstack 0
  1330   001292                     _pwm1_ini:
  1331                           	callstack 23
  1332   001292                     
  1333                           ;hardware.c: 110: OSCCON = 0x72;
  1334   001292  0E72               	movlw	114
  1335   001294  6ED3               	movwf	211,c	;volatile
  1336   001296                     
  1337                           ;hardware.c: 111: T2CONbits.TMR2ON = 1;
  1338   001296  84CA               	bsf	202,2,c	;volatile
  1339   001298                     
  1340                           ;hardware.c: 112: TMR2 = 0;
  1341   001298  6ACC               	clrf	204,c	;volatile
  1342                           
  1343                           ;hardware.c: 114: CCP1CON = 0X0F;
  1344   00129A  0E0F               	movlw	15
  1345   00129C  6EBD               	movwf	189,c	;volatile
  1346   00129E                     
  1347                           ;hardware.c: 119: pr_var = (uint8_t)(round((1/(float)1000)/((4/(float)8000000) * (float)
      +                          16 * (float)1)));
  1348   00129E  0E00               	movlw	0
  1349   0012A0  0100               	movlb	0	; () banked
  1350   0012A2  6F60               	movwf	round@x& (0+255),b
  1351   0012A4  0E00               	movlw	0
  1352   0012A6  6F61               	movwf	(round@x+1)& (0+255),b
  1353   0012A8  0EFA               	movlw	250
  1354   0012AA  6F62               	movwf	(round@x+2)& (0+255),b
  1355   0012AC  0E42               	movlw	66
  1356   0012AE  6F63               	movwf	(round@x+3)& (0+255),b
  1357   0012B0  EC10  F00C         	call	_round	;wreg free
  1358   0012B4  C060  F06A         	movff	?_round,_pwm1_ini$1539
  1359   0012B8  C061  F06B         	movff	?_round+1,_pwm1_ini$1539+1
  1360   0012BC  C062  F06C         	movff	?_round+2,_pwm1_ini$1539+2
  1361   0012C0  C063  F06D         	movff	?_round+3,_pwm1_ini$1539+3
  1362   0012C4                     
  1363                           ;hardware.c: 119: pr_var = (uint8_t)(round((1/(float)1000)/((4/(float)8000000) * (float)
      +                          16 * (float)1)));
  1364   0012C4  C06A  F03B         	movff	_pwm1_ini$1539,___fltol@f1
  1365   0012C8  C06B  F03C         	movff	_pwm1_ini$1539+1,___fltol@f1+1
  1366   0012CC  C06C  F03D         	movff	_pwm1_ini$1539+2,___fltol@f1+2
  1367   0012D0  C06D  F03E         	movff	_pwm1_ini$1539+3,___fltol@f1+3
  1368   0012D4  EC89  F00A         	call	___fltol	;wreg free
  1369   0012D8  503B               	movf	?___fltol^0,w,c
  1370   0012DA  0100               	movlb	0	; () banked
  1371   0012DC  6F76               	movwf	pwm1_ini@pr_var& (0+255),b
  1372   0012DE                     
  1373                           ; BSR set to: 0
  1374                           ;hardware.c: 122: PR2 = pr_var;
  1375   0012DE  C076  FFCB         	movff	pwm1_ini@pr_var,4043	;volatile
  1376   0012E2                     
  1377                           ; BSR set to: 0
  1378                           ;hardware.c: 124: uint16_t cycle = (uint16_t)(round(((((float)500)/;hardware.c: 125: 100
      +                          0.0)*4.0*((float)(pr_var)+1.0))));
  1379   0012E2  0E00               	movlw	0
  1380   0012E4  6E26               	movwf	___flmul@a^0,c
  1381   0012E6  0E00               	movlw	0
  1382   0012E8  6E27               	movwf	(___flmul@a+1)^0,c
  1383   0012EA  0E00               	movlw	0
  1384   0012EC  6E28               	movwf	(___flmul@a+2)^0,c
  1385   0012EE  0E40               	movlw	64
  1386   0012F0  6E29               	movwf	(___flmul@a+3)^0,c
  1387   0012F2  0E00               	movlw	0
  1388   0012F4  6E16               	movwf	___fladd@a^0,c
  1389   0012F6  0E00               	movlw	0
  1390   0012F8  6E17               	movwf	(___fladd@a+1)^0,c
  1391   0012FA  0E80               	movlw	128
  1392   0012FC  6E18               	movwf	(___fladd@a+2)^0,c
  1393   0012FE  0E3F               	movlw	63
  1394   001300  6E19               	movwf	(___fladd@a+3)^0,c
  1395   001302  5176               	movf	pwm1_ini@pr_var& (0+255),w,b
  1396   001304  6E04               	movwf	___xxtofl@val^0,c
  1397   001306  6A05               	clrf	(___xxtofl@val+1)^0,c
  1398   001308  6A06               	clrf	(___xxtofl@val+2)^0,c
  1399   00130A  6A07               	clrf	(___xxtofl@val+3)^0,c
  1400   00130C  0E00               	movlw	0
  1401   00130E  EC6F  F008         	call	___xxtofl
  1402   001312  C004  F012         	movff	?___xxtofl,___fladd@b
  1403   001316  C005  F013         	movff	?___xxtofl+1,___fladd@b+1
  1404   00131A  C006  F014         	movff	?___xxtofl+2,___fladd@b+2
  1405   00131E  C007  F015         	movff	?___xxtofl+3,___fladd@b+3
  1406   001322  EC01  F004         	call	___fladd	;wreg free
  1407   001326  C012  F022         	movff	?___fladd,___flmul@b
  1408   00132A  C013  F023         	movff	?___fladd+1,___flmul@b+1
  1409   00132E  C014  F024         	movff	?___fladd+2,___flmul@b+2
  1410   001332  C015  F025         	movff	?___fladd+3,___flmul@b+3
  1411   001336  EC5C  F006         	call	___flmul	;wreg free
  1412   00133A  C022  F06E         	movff	?___flmul,_pwm1_ini$1540
  1413   00133E  C023  F06F         	movff	?___flmul+1,_pwm1_ini$1540+1
  1414   001342  C024  F070         	movff	?___flmul+2,_pwm1_ini$1540+2
  1415   001346  C025  F071         	movff	?___flmul+3,_pwm1_ini$1540+3
  1416   00134A                     
  1417                           ;hardware.c: 124: uint16_t cycle = (uint16_t)(round(((((float)500)/;hardware.c: 125: 100
      +                          0.0)*4.0*((float)(pr_var)+1.0))));
  1418   00134A  C06E  F060         	movff	_pwm1_ini$1540,round@x
  1419   00134E  C06F  F061         	movff	_pwm1_ini$1540+1,round@x+1
  1420   001352  C070  F062         	movff	_pwm1_ini$1540+2,round@x+2
  1421   001356  C071  F063         	movff	_pwm1_ini$1540+3,round@x+3
  1422   00135A  EC10  F00C         	call	_round	;wreg free
  1423   00135E  C060  F072         	movff	?_round,_pwm1_ini$1541
  1424   001362  C061  F073         	movff	?_round+1,_pwm1_ini$1541+1
  1425   001366  C062  F074         	movff	?_round+2,_pwm1_ini$1541+2
  1426   00136A  C063  F075         	movff	?_round+3,_pwm1_ini$1541+3
  1427   00136E                     
  1428                           ;hardware.c: 124: uint16_t cycle = (uint16_t)(round(((((float)500)/;hardware.c: 125: 100
      +                          0.0)*4.0*((float)(pr_var)+1.0))));
  1429   00136E  C072  F03B         	movff	_pwm1_ini$1541,___fltol@f1
  1430   001372  C073  F03C         	movff	_pwm1_ini$1541+1,___fltol@f1+1
  1431   001376  C074  F03D         	movff	_pwm1_ini$1541+2,___fltol@f1+2
  1432   00137A  C075  F03E         	movff	_pwm1_ini$1541+3,___fltol@f1+3
  1433   00137E  EC89  F00A         	call	___fltol	;wreg free
  1434   001382  C03B  F077         	movff	?___fltol,pwm1_ini@cycle
  1435   001386  C03C  F078         	movff	?___fltol+1,pwm1_ini@cycle+1
  1436   00138A                     
  1437                           ;hardware.c: 126: CCP1CONbits.DC1B0 = cycle;
  1438   00138A  0100               	movlb	0	; () banked
  1439   00138C  B177               	btfsc	pwm1_ini@cycle& (0+255),0,b
  1440   00138E  D002               	bra	u2315
  1441   001390  98BD               	bcf	189,4,c	;volatile
  1442   001392  D001               	bra	u2316
  1443   001394                     u2315:
  1444   001394  88BD               	bsf	189,4,c	;volatile
  1445   001396                     u2316:
  1446   001396                     
  1447                           ;hardware.c: 127: CCP1CONbits.DC1B1 = cycle >> 1;
  1448   001396  90D8               	bcf	status,0,c
  1449   001398  0100               	movlb	0	; () banked
  1450   00139A  3178               	rrcf	(pwm1_ini@cycle+1)& (0+255),w,b
  1451   00139C  6F69               	movwf	(??_pwm1_ini+1)& (0+255),b
  1452   00139E  3177               	rrcf	pwm1_ini@cycle& (0+255),w,b
  1453   0013A0  6F68               	movwf	??_pwm1_ini& (0+255),b
  1454   0013A2  3B68               	swapf	??_pwm1_ini& (0+255),f,b
  1455   0013A4  4768               	rlncf	??_pwm1_ini& (0+255),f,b
  1456   0013A6  50BD               	movf	189,w,c	;volatile
  1457   0013A8  1968               	xorwf	??_pwm1_ini& (0+255),w,b
  1458   0013AA  0BDF               	andlw	-33
  1459   0013AC  1968               	xorwf	??_pwm1_ini& (0+255),w,b
  1460   0013AE  6EBD               	movwf	189,c	;volatile
  1461   0013B0                     
  1462                           ; BSR set to: 0
  1463                           ;hardware.c: 128: CCPR1L = cycle >> 2;
  1464   0013B0  C077  F068         	movff	pwm1_ini@cycle,??_pwm1_ini
  1465   0013B4  C078  F069         	movff	pwm1_ini@cycle+1,??_pwm1_ini+1
  1466   0013B8  90D8               	bcf	status,0,c
  1467   0013BA  3369               	rrcf	(??_pwm1_ini+1)& (0+255),f,b
  1468   0013BC  3368               	rrcf	??_pwm1_ini& (0+255),f,b
  1469   0013BE  90D8               	bcf	status,0,c
  1470   0013C0  3369               	rrcf	(??_pwm1_ini+1)& (0+255),f,b
  1471   0013C2  3368               	rrcf	??_pwm1_ini& (0+255),f,b
  1472   0013C4  5168               	movf	??_pwm1_ini& (0+255),w,b
  1473   0013C6  6EBE               	movwf	190,c	;volatile
  1474   0013C8                     
  1475                           ; BSR set to: 0
  1476                           ;hardware.c: 132: TRISBbits.TRISB0 = 0;
  1477   0013C8  9093               	bcf	147,0,c	;volatile
  1478   0013CA                     
  1479                           ; BSR set to: 0
  1480                           ;hardware.c: 133: LATBbits.LATB0 = 1;
  1481   0013CA  808A               	bsf	138,0,c	;volatile
  1482   0013CC                     
  1483                           ; BSR set to: 0
  1484                           ;hardware.c: 134: ECCP1DEL = 0b10000000;
  1485   0013CC  0E80               	movlw	128
  1486   0013CE  6EB7               	movwf	183,c	;volatile
  1487   0013D0                     
  1488                           ; BSR set to: 0
  1489                           ;hardware.c: 135: ECCP1AS = 0b11010000;
  1490   0013D0  0ED0               	movlw	208
  1491   0013D2  6EB6               	movwf	182,c	;volatile
  1492   0013D4                     
  1493                           ; BSR set to: 0
  1494   0013D4  0012               	return		;funcret
  1495   0013D6                     __end_of_pwm1_ini:
  1496                           	callstack 0
  1497                           
  1498 ;; *************** function _round *****************
  1499 ;; Defined at:
  1500 ;;		line 6 in file "C:\Program Files\Microchip\xc8\v2.50\pic\sources\c90\common\round.c"
  1501 ;; Parameters:    Size  Location     Type
  1502 ;;  x               4    0[BANK0 ] void 
  1503 ;; Auto vars:     Size  Location     Type
  1504 ;;  f               4    4[BANK0 ] void 
  1505 ;; Return value:  Size  Location     Type
  1506 ;;                  4    0[BANK0 ] void 
  1507 ;; Registers used:
  1508 ;;		wreg, fsr2l, fsr2h, status,2, status,0, cstack
  1509 ;; Tracked objects:
  1510 ;;		On entry : 0/0
  1511 ;;		On exit  : 0/0
  1512 ;;		Unchanged: 0/0
  1513 ;; Data sizes:     COMRAM   BANK0   BANK1   BANK2   BANK3   BANK4   BANK5   BANK6   BANK7
  1514 ;;      Params:         0       4       0       0       0       0       0       0       0
  1515 ;;      Locals:         0       4       0       0       0       0       0       0       0
  1516 ;;      Temps:          0       0       0       0       0       0       0       0       0
  1517 ;;      Totals:         0       8       0       0       0       0       0       0       0
  1518 ;;Total ram usage:        8 bytes
  1519 ;; Hardware stack levels used: 1
  1520 ;; Hardware stack levels required when called: 5
  1521 ;; This function calls:
  1522 ;;		___fladd
  1523 ;;		___flsub
  1524 ;;		_trunc
  1525 ;; This function is called by:
  1526 ;;		_pwm1_ini
  1527 ;; This function uses a non-reentrant model
  1528 ;;
  1529                           
  1530                           	psect	text6
  1531   001820                     __ptext6:
  1532                           	callstack 0
  1533   001820                     _round:
  1534                           	callstack 23
  1535   001820  C060  F04F         	movff	round@x,___flsub@b
  1536   001824  C061  F050         	movff	round@x+1,___flsub@b+1
  1537   001828  C062  F051         	movff	round@x+2,___flsub@b+2
  1538   00182C  C063  F052         	movff	round@x+3,___flsub@b+3
  1539   001830  C060  F045         	movff	round@x,trunc@x
  1540   001834  C061  F046         	movff	round@x+1,trunc@x+1
  1541   001838  C062  F047         	movff	round@x+2,trunc@x+2
  1542   00183C  C063  F048         	movff	round@x+3,trunc@x+3
  1543   001840  EC0C  F00B         	call	_trunc	;wreg free
  1544   001844  C045  F053         	movff	?_trunc,___flsub@a
  1545   001848  C046  F054         	movff	?_trunc+1,___flsub@a+1
  1546   00184C  C047  F055         	movff	?_trunc+2,___flsub@a+2
  1547   001850  C048  F056         	movff	?_trunc+3,___flsub@a+3
  1548   001854  EC73  F00D         	call	___flsub	;wreg free
  1549   001858  C04F  F064         	movff	?___flsub,round@f
  1550   00185C  C050  F065         	movff	?___flsub+1,round@f+1
  1551   001860  C051  F066         	movff	?___flsub+2,round@f+2
  1552   001864  C052  F067         	movff	?___flsub+3,round@f+3
  1553   001868  C060  F012         	movff	round@x,___fladd@b
  1554   00186C  C061  F013         	movff	round@x+1,___fladd@b+1
  1555   001870  C062  F014         	movff	round@x+2,___fladd@b+2
  1556   001874  C063  F015         	movff	round@x+3,___fladd@b+3
  1557   001878  C064  F016         	movff	round@f,___fladd@a
  1558   00187C  C065  F017         	movff	round@f+1,___fladd@a+1
  1559   001880  C066  F018         	movff	round@f+2,___fladd@a+2
  1560   001884  C067  F019         	movff	round@f+3,___fladd@a+3
  1561   001888  EC01  F004         	call	___fladd	;wreg free
  1562   00188C  C012  F060         	movff	?___fladd,round@x
  1563   001890  C013  F061         	movff	?___fladd+1,round@x+1
  1564   001894  C014  F062         	movff	?___fladd+2,round@x+2
  1565   001898  C015  F063         	movff	?___fladd+3,round@x+3
  1566   00189C  C060  F045         	movff	round@x,trunc@x
  1567   0018A0  C061  F046         	movff	round@x+1,trunc@x+1
  1568   0018A4  C062  F047         	movff	round@x+2,trunc@x+2
  1569   0018A8  C063  F048         	movff	round@x+3,trunc@x+3
  1570   0018AC  EC0C  F00B         	call	_trunc	;wreg free
  1571   0018B0  C045  F060         	movff	?_trunc,?_round
  1572   0018B4  C046  F061         	movff	?_trunc+1,?_round+1
  1573   0018B8  C047  F062         	movff	?_trunc+2,?_round+2
  1574   0018BC  C048  F063         	movff	?_trunc+3,?_round+3
  1575   0018C0  0012               	return		;funcret
  1576   0018C2                     __end_of_round:
  1577                           	callstack 0
  1578                           
  1579 ;; *************** function _trunc *****************
  1580 ;; Defined at:
  1581 ;;		line 13 in file "C:\Program Files\Microchip\xc8\v2.50\pic\sources\c90\common\trunc.c"
  1582 ;; Parameters:    Size  Location     Type
  1583 ;;  x               4   68[COMRAM] void 
  1584 ;; Auto vars:     Size  Location     Type
  1585 ;;  i               4   72[COMRAM] void 
  1586 ;;  expon           2   76[COMRAM] int 
  1587 ;; Return value:  Size  Location     Type
  1588 ;;                  4   68[COMRAM] int 
  1589 ;; Registers used:
  1590 ;;		wreg, fsr2l, fsr2h, status,2, status,0, cstack
  1591 ;; Tracked objects:
  1592 ;;		On entry : 0/0
  1593 ;;		On exit  : 0/0
  1594 ;;		Unchanged: 0/0
  1595 ;; Data sizes:     COMRAM   BANK0   BANK1   BANK2   BANK3   BANK4   BANK5   BANK6   BANK7
  1596 ;;      Params:         4       0       0       0       0       0       0       0       0
  1597 ;;      Locals:         6       0       0       0       0       0       0       0       0
  1598 ;;      Temps:          0       0       0       0       0       0       0       0       0
  1599 ;;      Totals:        10       0       0       0       0       0       0       0       0
  1600 ;;Total ram usage:       10 bytes
  1601 ;; Hardware stack levels used: 1
  1602 ;; Hardware stack levels required when called: 4
  1603 ;; This function calls:
  1604 ;;		___fltol
  1605 ;;		___xxtofl
  1606 ;;		_frexp
  1607 ;; This function is called by:
  1608 ;;		_round
  1609 ;; This function uses a non-reentrant model
  1610 ;;
  1611                           
  1612                           	psect	text7
  1613   001618                     __ptext7:
  1614                           	callstack 0
  1615   001618                     _trunc:
  1616                           	callstack 23
  1617   001618  C045  F010         	movff	trunc@x,frexp@value
  1618   00161C  C046  F011         	movff	trunc@x+1,frexp@value+1
  1619   001620  C047  F012         	movff	trunc@x+2,frexp@value+2
  1620   001624  C048  F013         	movff	trunc@x+3,frexp@value+3
  1621   001628  0E4D               	movlw	low trunc@expon
  1622   00162A  6E14               	movwf	frexp@eptr^0,c
  1623   00162C  EC61  F00C         	call	_frexp	;wreg free
  1624   001630  BE4E               	btfsc	(trunc@expon+1)^0,7,c
  1625   001632  EF1F  F00B         	goto	u1870
  1626   001636  EF1D  F00B         	goto	u1871
  1627   00163A                     u1871:
  1628   00163A  EF29  F00B         	goto	l2263
  1629   00163E                     u1870:
  1630   00163E  0E00               	movlw	0
  1631   001640  6E45               	movwf	?_trunc^0,c
  1632   001642  0E00               	movlw	0
  1633   001644  6E46               	movwf	(?_trunc+1)^0,c
  1634   001646  0E00               	movlw	0
  1635   001648  6E47               	movwf	(?_trunc+2)^0,c
  1636   00164A  0E00               	movlw	0
  1637   00164C  6E48               	movwf	(?_trunc+3)^0,c
  1638   00164E  EF63  F00B         	goto	l908
  1639   001652                     l2263:
  1640   001652  504E               	movf	(trunc@expon+1)^0,w,c
  1641   001654  E109               	bnz	u1880
  1642   001656  0E1D               	movlw	29
  1643   001658  5C4D               	subwf	trunc@expon^0,w,c
  1644   00165A  A0D8               	btfss	status,0,c
  1645   00165C  EF32  F00B         	goto	u1881
  1646   001660  EF34  F00B         	goto	u1880
  1647   001664                     u1881:
  1648   001664  EF3E  F00B         	goto	l2267
  1649   001668                     u1880:
  1650   001668  C045  F045         	movff	trunc@x,?_trunc
  1651   00166C  C046  F046         	movff	trunc@x+1,?_trunc+1
  1652   001670  C047  F047         	movff	trunc@x+2,?_trunc+2
  1653   001674  C048  F048         	movff	trunc@x+3,?_trunc+3
  1654   001678  EF63  F00B         	goto	l908
  1655   00167C                     l2267:
  1656   00167C  C045  F03B         	movff	trunc@x,___fltol@f1
  1657   001680  C046  F03C         	movff	trunc@x+1,___fltol@f1+1
  1658   001684  C047  F03D         	movff	trunc@x+2,___fltol@f1+2
  1659   001688  C048  F03E         	movff	trunc@x+3,___fltol@f1+3
  1660   00168C  EC89  F00A         	call	___fltol	;wreg free
  1661   001690  C03B  F004         	movff	?___fltol,___xxtofl@val
  1662   001694  C03C  F005         	movff	?___fltol+1,___xxtofl@val+1
  1663   001698  C03D  F006         	movff	?___fltol+2,___xxtofl@val+2
  1664   00169C  C03E  F007         	movff	?___fltol+3,___xxtofl@val+3
  1665   0016A0  0E01               	movlw	1
  1666   0016A2  EC6F  F008         	call	___xxtofl
  1667   0016A6  C004  F049         	movff	?___xxtofl,trunc@i
  1668   0016AA  C005  F04A         	movff	?___xxtofl+1,trunc@i+1
  1669   0016AE  C006  F04B         	movff	?___xxtofl+2,trunc@i+2
  1670   0016B2  C007  F04C         	movff	?___xxtofl+3,trunc@i+3
  1671   0016B6  C049  F045         	movff	trunc@i,?_trunc
  1672   0016BA  C04A  F046         	movff	trunc@i+1,?_trunc+1
  1673   0016BE  C04B  F047         	movff	trunc@i+2,?_trunc+2
  1674   0016C2  C04C  F048         	movff	trunc@i+3,?_trunc+3
  1675   0016C6                     l908:
  1676   0016C6  0012               	return		;funcret
  1677   0016C8                     __end_of_trunc:
  1678                           	callstack 0
  1679                           
  1680 ;; *************** function _frexp *****************
  1681 ;; Defined at:
  1682 ;;		line 254 in file "C:\Program Files\Microchip\xc8\v2.50\pic\sources\c90\common\frexp.c"
  1683 ;; Parameters:    Size  Location     Type
  1684 ;;  value           4   15[COMRAM] int 
  1685 ;;  eptr            1   19[COMRAM] PTR int 
  1686 ;;		 -> trunc@expon(2), 
  1687 ;; Auto vars:     Size  Location     Type
  1688 ;;		None
  1689 ;; Return value:  Size  Location     Type
  1690 ;;                  4   15[COMRAM] PTR int 
  1691 ;; Registers used:
  1692 ;;		wreg, fsr2l, fsr2h, status,2, status,0, cstack
  1693 ;; Tracked objects:
  1694 ;;		On entry : 0/0
  1695 ;;		On exit  : 0/0
  1696 ;;		Unchanged: 0/0
  1697 ;; Data sizes:     COMRAM   BANK0   BANK1   BANK2   BANK3   BANK4   BANK5   BANK6   BANK7
  1698 ;;      Params:         5       0       0       0       0       0       0       0       0
  1699 ;;      Locals:         0       0       0       0       0       0       0       0       0
  1700 ;;      Temps:          2       0       0       0       0       0       0       0       0
  1701 ;;      Totals:         7       0       0       0       0       0       0       0       0
  1702 ;;Total ram usage:        7 bytes
  1703 ;; Hardware stack levels used: 1
  1704 ;; Hardware stack levels required when called: 3
  1705 ;; This function calls:
  1706 ;;		___fleq
  1707 ;; This function is called by:
  1708 ;;		_trunc
  1709 ;; This function uses a non-reentrant model
  1710 ;;
  1711                           
  1712                           	psect	text8
  1713   0018C2                     __ptext8:
  1714                           	callstack 0
  1715   0018C2                     _frexp:
  1716                           	callstack 23
  1717   0018C2  C010  F004         	movff	frexp@value,___fleq@ff1
  1718   0018C6  C011  F005         	movff	frexp@value+1,___fleq@ff1+1
  1719   0018CA  C012  F006         	movff	frexp@value+2,___fleq@ff1+2
  1720   0018CE  C013  F007         	movff	frexp@value+3,___fleq@ff1+3
  1721   0018D2  0E00               	movlw	0
  1722   0018D4  6E08               	movwf	___fleq@ff2^0,c
  1723   0018D6  0E00               	movlw	0
  1724   0018D8  6E09               	movwf	(___fleq@ff2+1)^0,c
  1725   0018DA  0E00               	movlw	0
  1726   0018DC  6E0A               	movwf	(___fleq@ff2+2)^0,c
  1727   0018DE  0E00               	movlw	0
  1728   0018E0  6E0B               	movwf	(___fleq@ff2+3)^0,c
  1729   0018E2  ECBB  F00B         	call	___fleq	;wreg free
  1730   0018E6  A0D8               	btfss	status,0,c
  1731   0018E8  EF78  F00C         	goto	u1831
  1732   0018EC  EF7A  F00C         	goto	u1830
  1733   0018F0                     u1831:
  1734   0018F0  EF81  F00C         	goto	l2223
  1735   0018F4                     u1830:
  1736   0018F4  5014               	movf	frexp@eptr^0,w,c
  1737   0018F6  6ED9               	movwf	fsr2l,c
  1738   0018F8  6ADA               	clrf	fsr2h,c
  1739   0018FA  6ADE               	clrf	postinc2,c
  1740   0018FC  6ADD               	clrf	postdec2,c
  1741   0018FE  EFAC  F00C         	goto	l915
  1742   001902                     l2223:
  1743   001902  5013               	movf	(frexp@value+3)^0,w,c
  1744   001904  0B7F               	andlw	127
  1745   001906  6E15               	movwf	??_frexp^0,c
  1746   001908  6A16               	clrf	(??_frexp+1)^0,c
  1747   00190A  90D8               	bcf	status,0,c
  1748   00190C  3615               	rlcf	??_frexp^0,f,c
  1749   00190E  3616               	rlcf	(??_frexp+1)^0,f,c
  1750   001910  5014               	movf	frexp@eptr^0,w,c
  1751   001912  6ED9               	movwf	fsr2l,c
  1752   001914  6ADA               	clrf	fsr2h,c
  1753   001916  C015  FFDE         	movff	??_frexp,postinc2
  1754   00191A  C016  FFDD         	movff	??_frexp+1,postdec2
  1755   00191E  5014               	movf	frexp@eptr^0,w,c
  1756   001920  6ED9               	movwf	fsr2l,c
  1757   001922  6ADA               	clrf	fsr2h,c
  1758   001924  BE12               	btfsc	(frexp@value+2)^0,7,c
  1759   001926  EF97  F00C         	goto	u1841
  1760   00192A  EF9B  F00C         	goto	u1840
  1761   00192E                     u1841:
  1762   00192E  6A15               	clrf	??_frexp^0,c
  1763   001930  2A15               	incf	??_frexp^0,f,c
  1764   001932  EF9C  F00C         	goto	u1848
  1765   001936                     u1840:
  1766   001936  6A15               	clrf	??_frexp^0,c
  1767   001938                     u1848:
  1768   001938  5015               	movf	??_frexp^0,w,c
  1769   00193A  12DE               	iorwf	postinc2,f,c
  1770   00193C  0E00               	movlw	0
  1771   00193E  12DD               	iorwf	postdec2,f,c
  1772   001940  5014               	movf	frexp@eptr^0,w,c
  1773   001942  6ED9               	movwf	fsr2l,c
  1774   001944  6ADA               	clrf	fsr2h,c
  1775   001946  0E82               	movlw	130
  1776   001948  26DE               	addwf	postinc2,f,c
  1777   00194A  0EFF               	movlw	255
  1778   00194C  22DD               	addwfc	postdec2,f,c
  1779   00194E  5013               	movf	(frexp@value+3)^0,w,c
  1780   001950  0B80               	andlw	-128
  1781   001952  093F               	iorlw	63
  1782   001954  6E13               	movwf	(frexp@value+3)^0,c
  1783   001956  9E12               	bcf	(frexp@value+2)^0,7,c
  1784   001958                     l915:
  1785   001958  0012               	return		;funcret
  1786   00195A                     __end_of_frexp:
  1787                           	callstack 0
  1788                           
  1789 ;; *************** function ___fleq *****************
  1790 ;; Defined at:
  1791 ;;		line 4 in file "C:\Program Files\Microchip\xc8\v2.50\pic\sources\c90\common\fleq.c"
  1792 ;; Parameters:    Size  Location     Type
  1793 ;;  ff1             4    3[COMRAM] PTR int 
  1794 ;;  ff2             4    7[COMRAM] PTR int 
  1795 ;; Auto vars:     Size  Location     Type
  1796 ;;		None
  1797 ;; Return value:  Size  Location     Type
  1798 ;;		None               void
  1799 ;; Registers used:
  1800 ;;		wreg, status,2, status,0
  1801 ;; Tracked objects:
  1802 ;;		On entry : 0/0
  1803 ;;		On exit  : 0/0
  1804 ;;		Unchanged: 0/0
  1805 ;; Data sizes:     COMRAM   BANK0   BANK1   BANK2   BANK3   BANK4   BANK5   BANK6   BANK7
  1806 ;;      Params:         8       0       0       0       0       0       0       0       0
  1807 ;;      Locals:         0       0       0       0       0       0       0       0       0
  1808 ;;      Temps:          4       0       0       0       0       0       0       0       0
  1809 ;;      Totals:        12       0       0       0       0       0       0       0       0
  1810 ;;Total ram usage:       12 bytes
  1811 ;; Hardware stack levels used: 1
  1812 ;; Hardware stack levels required when called: 2
  1813 ;; This function calls:
  1814 ;;		Nothing
  1815 ;; This function is called by:
  1816 ;;		_frexp
  1817 ;; This function uses a non-reentrant model
  1818 ;;
  1819                           
  1820                           	psect	text9
  1821   001776                     __ptext9:
  1822                           	callstack 0
  1823   001776                     ___fleq:
  1824                           	callstack 23
  1825   001776  0E00               	movlw	0
  1826   001778  1404               	andwf	___fleq@ff1^0,w,c
  1827   00177A  6E0C               	movwf	??___fleq^0,c
  1828   00177C  0E00               	movlw	0
  1829   00177E  1405               	andwf	(___fleq@ff1+1)^0,w,c
  1830   001780  6E0D               	movwf	(??___fleq+1)^0,c
  1831   001782  0E80               	movlw	128
  1832   001784  1406               	andwf	(___fleq@ff1+2)^0,w,c
  1833   001786  6E0E               	movwf	(??___fleq+2)^0,c
  1834   001788  0E7F               	movlw	127
  1835   00178A  1407               	andwf	(___fleq@ff1+3)^0,w,c
  1836   00178C  6E0F               	movwf	(??___fleq+3)^0,c
  1837   00178E  500C               	movf	??___fleq^0,w,c
  1838   001790  100D               	iorwf	(??___fleq+1)^0,w,c
  1839   001792  100E               	iorwf	(??___fleq+2)^0,w,c
  1840   001794  100F               	iorwf	(??___fleq+3)^0,w,c
  1841   001796  A4D8               	btfss	status,2,c
  1842   001798  EFD0  F00B         	goto	u1211
  1843   00179C  EFD2  F00B         	goto	u1210
  1844   0017A0                     u1211:
  1845   0017A0  EFDA  F00B         	goto	l1899
  1846   0017A4                     u1210:
  1847   0017A4  0E00               	movlw	0
  1848   0017A6  6E04               	movwf	___fleq@ff1^0,c
  1849   0017A8  0E00               	movlw	0
  1850   0017AA  6E05               	movwf	(___fleq@ff1+1)^0,c
  1851   0017AC  0E00               	movlw	0
  1852   0017AE  6E06               	movwf	(___fleq@ff1+2)^0,c
  1853   0017B0  0E00               	movlw	0
  1854   0017B2  6E07               	movwf	(___fleq@ff1+3)^0,c
  1855   0017B4                     l1899:
  1856   0017B4  0E00               	movlw	0
  1857   0017B6  1408               	andwf	___fleq@ff2^0,w,c
  1858   0017B8  6E0C               	movwf	??___fleq^0,c
  1859   0017BA  0E00               	movlw	0
  1860   0017BC  1409               	andwf	(___fleq@ff2+1)^0,w,c
  1861   0017BE  6E0D               	movwf	(??___fleq+1)^0,c
  1862   0017C0  0E80               	movlw	128
  1863   0017C2  140A               	andwf	(___fleq@ff2+2)^0,w,c
  1864   0017C4  6E0E               	movwf	(??___fleq+2)^0,c
  1865   0017C6  0E7F               	movlw	127
  1866   0017C8  140B               	andwf	(___fleq@ff2+3)^0,w,c
  1867   0017CA  6E0F               	movwf	(??___fleq+3)^0,c
  1868   0017CC  500C               	movf	??___fleq^0,w,c
  1869   0017CE  100D               	iorwf	(??___fleq+1)^0,w,c
  1870   0017D0  100E               	iorwf	(??___fleq+2)^0,w,c
  1871   0017D2  100F               	iorwf	(??___fleq+3)^0,w,c
  1872   0017D4  A4D8               	btfss	status,2,c
  1873   0017D6  EFEF  F00B         	goto	u1221
  1874   0017DA  EFF1  F00B         	goto	u1220
  1875   0017DE                     u1221:
  1876   0017DE  EFF9  F00B         	goto	l1903
  1877   0017E2                     u1220:
  1878   0017E2  0E00               	movlw	0
  1879   0017E4  6E08               	movwf	___fleq@ff2^0,c
  1880   0017E6  0E00               	movlw	0
  1881   0017E8  6E09               	movwf	(___fleq@ff2+1)^0,c
  1882   0017EA  0E00               	movlw	0
  1883   0017EC  6E0A               	movwf	(___fleq@ff2+2)^0,c
  1884   0017EE  0E00               	movlw	0
  1885   0017F0  6E0B               	movwf	(___fleq@ff2+3)^0,c
  1886   0017F2                     l1903:
  1887   0017F2  5008               	movf	___fleq@ff2^0,w,c
  1888   0017F4  1804               	xorwf	___fleq@ff1^0,w,c
  1889   0017F6  E10F               	bnz	u1230
  1890   0017F8  5009               	movf	(___fleq@ff2+1)^0,w,c
  1891   0017FA  1805               	xorwf	(___fleq@ff1+1)^0,w,c
  1892   0017FC  E10C               	bnz	u1230
  1893   0017FE  500A               	movf	(___fleq@ff2+2)^0,w,c
  1894   001800  1806               	xorwf	(___fleq@ff1+2)^0,w,c
  1895   001802  E109               	bnz	u1230
  1896   001804  500B               	movf	(___fleq@ff2+3)^0,w,c
  1897   001806  1807               	xorwf	(___fleq@ff1+3)^0,w,c
  1898   001808  B4D8               	btfsc	status,2,c
  1899   00180A  EF09  F00C         	goto	u1231
  1900   00180E  EF0B  F00C         	goto	u1230
  1901   001812                     u1231:
  1902   001812  EF0E  F00C         	goto	l1907
  1903   001816                     u1230:
  1904   001816  90D8               	bcf	status,0,c
  1905   001818  EF0F  F00C         	goto	l479
  1906   00181C                     l1907:
  1907   00181C  80D8               	bsf	status,0,c
  1908   00181E                     l479:
  1909   00181E  0012               	return		;funcret
  1910   001820                     __end_of___fleq:
  1911                           	callstack 0
  1912                           
  1913 ;; *************** function ___xxtofl *****************
  1914 ;; Defined at:
  1915 ;;		line 10 in file "C:\Program Files\Microchip\xc8\v2.50\pic\sources\c90\common\xxtofl.c"
  1916 ;; Parameters:    Size  Location     Type
  1917 ;;  sign            1    wreg     unsigned char 
  1918 ;;  val             4    3[COMRAM] long 
  1919 ;; Auto vars:     Size  Location     Type
  1920 ;;  sign            1   11[COMRAM] unsigned char 
  1921 ;;  arg             4   13[COMRAM] unsigned long 
  1922 ;;  exp             1   12[COMRAM] unsigned char 
  1923 ;; Return value:  Size  Location     Type
  1924 ;;                  4    3[COMRAM] unsigned char 
  1925 ;; Registers used:
  1926 ;;		wreg, status,2, status,0
  1927 ;; Tracked objects:
  1928 ;;		On entry : 0/0
  1929 ;;		On exit  : 0/0
  1930 ;;		Unchanged: 0/0
  1931 ;; Data sizes:     COMRAM   BANK0   BANK1   BANK2   BANK3   BANK4   BANK5   BANK6   BANK7
  1932 ;;      Params:         4       0       0       0       0       0       0       0       0
  1933 ;;      Locals:         6       0       0       0       0       0       0       0       0
  1934 ;;      Temps:          4       0       0       0       0       0       0       0       0
  1935 ;;      Totals:        14       0       0       0       0       0       0       0       0
  1936 ;;Total ram usage:       14 bytes
  1937 ;; Hardware stack levels used: 1
  1938 ;; Hardware stack levels required when called: 2
  1939 ;; This function calls:
  1940 ;;		Nothing
  1941 ;; This function is called by:
  1942 ;;		_pwm1_ini
  1943 ;;		_trunc
  1944 ;; This function uses a non-reentrant model
  1945 ;;
  1946                           
  1947                           	psect	text10
  1948   0010DE                     __ptext10:
  1949                           	callstack 0
  1950   0010DE                     ___xxtofl:
  1951                           	callstack 24
  1952                           
  1953                           ;incstack = 0
  1954                           ;___xxtofl@sign stored from wreg
  1955   0010DE  6E0C               	movwf	___xxtofl@sign^0,c
  1956   0010E0  500C               	movf	___xxtofl@sign^0,w,c
  1957   0010E2  B4D8               	btfsc	status,2,c
  1958   0010E4  EF76  F008         	goto	u1731
  1959   0010E8  EF78  F008         	goto	u1730
  1960   0010EC                     u1731:
  1961   0010EC  EF9A  F008         	goto	l867
  1962   0010F0                     u1730:
  1963   0010F0  BE07               	btfsc	(___xxtofl@val+3)^0,7,c
  1964   0010F2  EF7F  F008         	goto	u1740
  1965   0010F6  EF7D  F008         	goto	u1741
  1966   0010FA                     u1741:
  1967   0010FA  EF9A  F008         	goto	l867
  1968   0010FE                     u1740:
  1969   0010FE  C004  F008         	movff	___xxtofl@val,??___xxtofl
  1970   001102  C005  F009         	movff	___xxtofl@val+1,??___xxtofl+1
  1971   001106  C006  F00A         	movff	___xxtofl@val+2,??___xxtofl+2
  1972   00110A  C007  F00B         	movff	___xxtofl@val+3,??___xxtofl+3
  1973   00110E  1E08               	comf	??___xxtofl^0,f,c
  1974   001110  1E09               	comf	(??___xxtofl+1)^0,f,c
  1975   001112  1E0A               	comf	(??___xxtofl+2)^0,f,c
  1976   001114  1E0B               	comf	(??___xxtofl+3)^0,f,c
  1977   001116  2A08               	incf	??___xxtofl^0,f,c
  1978   001118  0E00               	movlw	0
  1979   00111A  2209               	addwfc	(??___xxtofl+1)^0,f,c
  1980   00111C  220A               	addwfc	(??___xxtofl+2)^0,f,c
  1981   00111E  220B               	addwfc	(??___xxtofl+3)^0,f,c
  1982   001120  C008  F00E         	movff	??___xxtofl,___xxtofl@arg
  1983   001124  C009  F00F         	movff	??___xxtofl+1,___xxtofl@arg+1
  1984   001128  C00A  F010         	movff	??___xxtofl+2,___xxtofl@arg+2
  1985   00112C  C00B  F011         	movff	??___xxtofl+3,___xxtofl@arg+3
  1986   001130  EFA2  F008         	goto	l2177
  1987   001134                     l867:
  1988   001134  C004  F00E         	movff	___xxtofl@val,___xxtofl@arg
  1989   001138  C005  F00F         	movff	___xxtofl@val+1,___xxtofl@arg+1
  1990   00113C  C006  F010         	movff	___xxtofl@val+2,___xxtofl@arg+2
  1991   001140  C007  F011         	movff	___xxtofl@val+3,___xxtofl@arg+3
  1992   001144                     l2177:
  1993   001144  5004               	movf	___xxtofl@val^0,w,c
  1994   001146  1005               	iorwf	(___xxtofl@val+1)^0,w,c
  1995   001148  1006               	iorwf	(___xxtofl@val+2)^0,w,c
  1996   00114A  1007               	iorwf	(___xxtofl@val+3)^0,w,c
  1997   00114C  A4D8               	btfss	status,2,c
  1998   00114E  EFAB  F008         	goto	u1751
  1999   001152  EFAD  F008         	goto	u1750
  2000   001156                     u1751:
  2001   001156  EFB7  F008         	goto	l2183
  2002   00115A                     u1750:
  2003   00115A  0E00               	movlw	0
  2004   00115C  6E04               	movwf	?___xxtofl^0,c
  2005   00115E  0E00               	movlw	0
  2006   001160  6E05               	movwf	(?___xxtofl+1)^0,c
  2007   001162  0E00               	movlw	0
  2008   001164  6E06               	movwf	(?___xxtofl+2)^0,c
  2009   001166  0E00               	movlw	0
  2010   001168  6E07               	movwf	(?___xxtofl+3)^0,c
  2011   00116A  EF48  F009         	goto	l870
  2012   00116E                     l2183:
  2013   00116E  0E96               	movlw	150
  2014   001170  6E0D               	movwf	___xxtofl@exp^0,c
  2015   001172  EFC1  F008         	goto	l2187
  2016   001176                     l2185:
  2017   001176  2A0D               	incf	___xxtofl@exp^0,f,c
  2018   001178  90D8               	bcf	status,0,c
  2019   00117A  3211               	rrcf	(___xxtofl@arg+3)^0,f,c
  2020   00117C  3210               	rrcf	(___xxtofl@arg+2)^0,f,c
  2021   00117E  320F               	rrcf	(___xxtofl@arg+1)^0,f,c
  2022   001180  320E               	rrcf	___xxtofl@arg^0,f,c
  2023   001182                     l2187:
  2024   001182  0E00               	movlw	0
  2025   001184  140E               	andwf	___xxtofl@arg^0,w,c
  2026   001186  6E08               	movwf	??___xxtofl^0,c
  2027   001188  0E00               	movlw	0
  2028   00118A  140F               	andwf	(___xxtofl@arg+1)^0,w,c
  2029   00118C  6E09               	movwf	(??___xxtofl+1)^0,c
  2030   00118E  0E00               	movlw	0
  2031   001190  1410               	andwf	(___xxtofl@arg+2)^0,w,c
  2032   001192  6E0A               	movwf	(??___xxtofl+2)^0,c
  2033   001194  0EFE               	movlw	254
  2034   001196  1411               	andwf	(___xxtofl@arg+3)^0,w,c
  2035   001198  6E0B               	movwf	(??___xxtofl+3)^0,c
  2036   00119A  5008               	movf	??___xxtofl^0,w,c
  2037   00119C  1009               	iorwf	(??___xxtofl+1)^0,w,c
  2038   00119E  100A               	iorwf	(??___xxtofl+2)^0,w,c
  2039   0011A0  100B               	iorwf	(??___xxtofl+3)^0,w,c
  2040   0011A2  A4D8               	btfss	status,2,c
  2041   0011A4  EFD6  F008         	goto	u1761
  2042   0011A8  EFD8  F008         	goto	u1760
  2043   0011AC                     u1761:
  2044   0011AC  EFBB  F008         	goto	l2185
  2045   0011B0                     u1760:
  2046   0011B0  EFE6  F008         	goto	l874
  2047   0011B4                     l2189:
  2048   0011B4  2A0D               	incf	___xxtofl@exp^0,f,c
  2049   0011B6  0E01               	movlw	1
  2050   0011B8  260E               	addwf	___xxtofl@arg^0,f,c
  2051   0011BA  0E00               	movlw	0
  2052   0011BC  220F               	addwfc	(___xxtofl@arg+1)^0,f,c
  2053   0011BE  2210               	addwfc	(___xxtofl@arg+2)^0,f,c
  2054   0011C0  2211               	addwfc	(___xxtofl@arg+3)^0,f,c
  2055   0011C2  90D8               	bcf	status,0,c
  2056   0011C4  3211               	rrcf	(___xxtofl@arg+3)^0,f,c
  2057   0011C6  3210               	rrcf	(___xxtofl@arg+2)^0,f,c
  2058   0011C8  320F               	rrcf	(___xxtofl@arg+1)^0,f,c
  2059   0011CA  320E               	rrcf	___xxtofl@arg^0,f,c
  2060   0011CC                     l874:
  2061   0011CC  0E00               	movlw	0
  2062   0011CE  140E               	andwf	___xxtofl@arg^0,w,c
  2063   0011D0  6E08               	movwf	??___xxtofl^0,c
  2064   0011D2  0E00               	movlw	0
  2065   0011D4  140F               	andwf	(___xxtofl@arg+1)^0,w,c
  2066   0011D6  6E09               	movwf	(??___xxtofl+1)^0,c
  2067   0011D8  0E00               	movlw	0
  2068   0011DA  1410               	andwf	(___xxtofl@arg+2)^0,w,c
  2069   0011DC  6E0A               	movwf	(??___xxtofl+2)^0,c
  2070   0011DE  0EFF               	movlw	255
  2071   0011E0  1411               	andwf	(___xxtofl@arg+3)^0,w,c
  2072   0011E2  6E0B               	movwf	(??___xxtofl+3)^0,c
  2073   0011E4  5008               	movf	??___xxtofl^0,w,c
  2074   0011E6  1009               	iorwf	(??___xxtofl+1)^0,w,c
  2075   0011E8  100A               	iorwf	(??___xxtofl+2)^0,w,c
  2076   0011EA  100B               	iorwf	(??___xxtofl+3)^0,w,c
  2077   0011EC  A4D8               	btfss	status,2,c
  2078   0011EE  EFFB  F008         	goto	u1771
  2079   0011F2  EFFD  F008         	goto	u1770
  2080   0011F6                     u1771:
  2081   0011F6  EFDA  F008         	goto	l2189
  2082   0011FA                     u1770:
  2083   0011FA  EF05  F009         	goto	l2197
  2084   0011FE                     l2195:
  2085   0011FE  060D               	decf	___xxtofl@exp^0,f,c
  2086   001200  90D8               	bcf	status,0,c
  2087   001202  360E               	rlcf	___xxtofl@arg^0,f,c
  2088   001204  360F               	rlcf	(___xxtofl@arg+1)^0,f,c
  2089   001206  3610               	rlcf	(___xxtofl@arg+2)^0,f,c
  2090   001208  3611               	rlcf	(___xxtofl@arg+3)^0,f,c
  2091   00120A                     l2197:
  2092   00120A  BE10               	btfsc	(___xxtofl@arg+2)^0,7,c
  2093   00120C  EF0A  F009         	goto	u1781
  2094   001210  EF0C  F009         	goto	u1780
  2095   001214                     u1781:
  2096   001214  EF14  F009         	goto	l881
  2097   001218                     u1780:
  2098   001218  0E02               	movlw	2
  2099   00121A  600D               	cpfslt	___xxtofl@exp^0,c
  2100   00121C  EF12  F009         	goto	u1791
  2101   001220  EF14  F009         	goto	u1790
  2102   001224                     u1791:
  2103   001224  EFFF  F008         	goto	l2195
  2104   001228                     u1790:
  2105   001228                     l881:
  2106   001228  B00D               	btfsc	___xxtofl@exp^0,0,c
  2107   00122A  EF19  F009         	goto	u1801
  2108   00122E  EF1B  F009         	goto	u1800
  2109   001232                     u1801:
  2110   001232  EF1C  F009         	goto	l2203
  2111   001236                     u1800:
  2112   001236  9E10               	bcf	(___xxtofl@arg+2)^0,7,c
  2113   001238                     l2203:
  2114   001238  90D8               	bcf	status,0,c
  2115   00123A  320D               	rrcf	___xxtofl@exp^0,f,c
  2116   00123C  C00D  F008         	movff	___xxtofl@exp,??___xxtofl
  2117   001240  6A09               	clrf	(??___xxtofl+1)^0,c
  2118   001242  6A0A               	clrf	(??___xxtofl+2)^0,c
  2119   001244  6A0B               	clrf	(??___xxtofl+3)^0,c
  2120   001246  C008  F00B         	movff	??___xxtofl,??___xxtofl+3
  2121   00124A  6A0A               	clrf	(??___xxtofl+2)^0,c
  2122   00124C  6A09               	clrf	(??___xxtofl+1)^0,c
  2123   00124E  6A08               	clrf	??___xxtofl^0,c
  2124   001250  5008               	movf	??___xxtofl^0,w,c
  2125   001252  120E               	iorwf	___xxtofl@arg^0,f,c
  2126   001254  5009               	movf	(??___xxtofl+1)^0,w,c
  2127   001256  120F               	iorwf	(___xxtofl@arg+1)^0,f,c
  2128   001258  500A               	movf	(??___xxtofl+2)^0,w,c
  2129   00125A  1210               	iorwf	(___xxtofl@arg+2)^0,f,c
  2130   00125C  500B               	movf	(??___xxtofl+3)^0,w,c
  2131   00125E  1211               	iorwf	(___xxtofl@arg+3)^0,f,c
  2132   001260  500C               	movf	___xxtofl@sign^0,w,c
  2133   001262  B4D8               	btfsc	status,2,c
  2134   001264  EF36  F009         	goto	u1811
  2135   001268  EF38  F009         	goto	u1810
  2136   00126C                     u1811:
  2137   00126C  EF40  F009         	goto	l2213
  2138   001270                     u1810:
  2139   001270  BE07               	btfsc	(___xxtofl@val+3)^0,7,c
  2140   001272  EF3F  F009         	goto	u1820
  2141   001276  EF3D  F009         	goto	u1821
  2142   00127A                     u1821:
  2143   00127A  EF40  F009         	goto	l2213
  2144   00127E                     u1820:
  2145   00127E  8E11               	bsf	(___xxtofl@arg+3)^0,7,c
  2146   001280                     l2213:
  2147   001280  C00E  F004         	movff	___xxtofl@arg,?___xxtofl
  2148   001284  C00F  F005         	movff	___xxtofl@arg+1,?___xxtofl+1
  2149   001288  C010  F006         	movff	___xxtofl@arg+2,?___xxtofl+2
  2150   00128C  C011  F007         	movff	___xxtofl@arg+3,?___xxtofl+3
  2151   001290                     l870:
  2152   001290  0012               	return		;funcret
  2153   001292                     __end_of___xxtofl:
  2154                           	callstack 0
  2155                           
  2156 ;; *************** function ___fltol *****************
  2157 ;; Defined at:
  2158 ;;		line 43 in file "C:\Program Files\Microchip\xc8\v2.50\pic\sources\c90\common\fltol.c"
  2159 ;; Parameters:    Size  Location     Type
  2160 ;;  f1              4   58[COMRAM] unsigned char 
  2161 ;; Auto vars:     Size  Location     Type
  2162 ;;  exp1            1   67[COMRAM] unsigned char 
  2163 ;;  sign1           1   66[COMRAM] unsigned char 
  2164 ;; Return value:  Size  Location     Type
  2165 ;;                  4   58[COMRAM] long 
  2166 ;; Registers used:
  2167 ;;		wreg, status,2, status,0
  2168 ;; Tracked objects:
  2169 ;;		On entry : 0/0
  2170 ;;		On exit  : 0/0
  2171 ;;		Unchanged: 0/0
  2172 ;; Data sizes:     COMRAM   BANK0   BANK1   BANK2   BANK3   BANK4   BANK5   BANK6   BANK7
  2173 ;;      Params:         4       0       0       0       0       0       0       0       0
  2174 ;;      Locals:         2       0       0       0       0       0       0       0       0
  2175 ;;      Temps:          4       0       0       0       0       0       0       0       0
  2176 ;;      Totals:        10       0       0       0       0       0       0       0       0
  2177 ;;Total ram usage:       10 bytes
  2178 ;; Hardware stack levels used: 1
  2179 ;; Hardware stack levels required when called: 2
  2180 ;; This function calls:
  2181 ;;		Nothing
  2182 ;; This function is called by:
  2183 ;;		_pwm1_ini
  2184 ;;		_trunc
  2185 ;; This function uses a non-reentrant model
  2186 ;;
  2187                           
  2188                           	psect	text11
  2189   001512                     __ptext11:
  2190                           	callstack 0
  2191   001512                     ___fltol:
  2192                           	callstack 24
  2193   001512  343D               	rlcf	(___fltol@f1+2)^0,w,c
  2194   001514  343E               	rlcf	(___fltol@f1+3)^0,w,c
  2195   001516  6E44               	movwf	___fltol@exp1^0,c
  2196   001518  5044               	movf	___fltol@exp1^0,w,c
  2197   00151A  A4D8               	btfss	status,2,c
  2198   00151C  EF92  F00A         	goto	u1631
  2199   001520  EF94  F00A         	goto	u1630
  2200   001524                     u1631:
  2201   001524  EF9E  F00A         	goto	l2111
  2202   001528                     u1630:
  2203   001528                     l2107:
  2204   001528  0E00               	movlw	0
  2205   00152A  6E3B               	movwf	?___fltol^0,c
  2206   00152C  0E00               	movlw	0
  2207   00152E  6E3C               	movwf	(?___fltol+1)^0,c
  2208   001530  0E00               	movlw	0
  2209   001532  6E3D               	movwf	(?___fltol+2)^0,c
  2210   001534  0E00               	movlw	0
  2211   001536  6E3E               	movwf	(?___fltol+3)^0,c
  2212   001538  EF0B  F00B         	goto	l513
  2213   00153C                     l2111:
  2214   00153C  C03B  F03F         	movff	___fltol@f1,??___fltol
  2215   001540  C03C  F040         	movff	___fltol@f1+1,??___fltol+1
  2216   001544  C03D  F041         	movff	___fltol@f1+2,??___fltol+2
  2217   001548  C03E  F042         	movff	___fltol@f1+3,??___fltol+3
  2218   00154C  0E20               	movlw	32
  2219   00154E  EFAE  F00A         	goto	u1640
  2220   001552                     u1645:
  2221   001552  90D8               	bcf	status,0,c
  2222   001554  3242               	rrcf	(??___fltol+3)^0,f,c
  2223   001556  3241               	rrcf	(??___fltol+2)^0,f,c
  2224   001558  3240               	rrcf	(??___fltol+1)^0,f,c
  2225   00155A  323F               	rrcf	??___fltol^0,f,c
  2226   00155C                     u1640:
  2227   00155C  2EE8               	decfsz	wreg,f,c
  2228   00155E  EFA9  F00A         	goto	u1645
  2229   001562  503F               	movf	??___fltol^0,w,c
  2230   001564  6E43               	movwf	___fltol@sign1^0,c
  2231   001566  8E3D               	bsf	(___fltol@f1+2)^0,7,c
  2232   001568  0EFF               	movlw	255
  2233   00156A  163B               	andwf	___fltol@f1^0,f,c
  2234   00156C  0EFF               	movlw	255
  2235   00156E  163C               	andwf	(___fltol@f1+1)^0,f,c
  2236   001570  0EFF               	movlw	255
  2237   001572  163D               	andwf	(___fltol@f1+2)^0,f,c
  2238   001574  0E00               	movlw	0
  2239   001576  163E               	andwf	(___fltol@f1+3)^0,f,c
  2240   001578  0E96               	movlw	150
  2241   00157A  5E44               	subwf	___fltol@exp1^0,f,c
  2242   00157C  BE44               	btfsc	___fltol@exp1^0,7,c
  2243   00157E  EFC5  F00A         	goto	u1650
  2244   001582  EFC3  F00A         	goto	u1651
  2245   001586                     u1651:
  2246   001586  EFDB  F00A         	goto	l2131
  2247   00158A                     u1650:
  2248   00158A  5044               	movf	___fltol@exp1^0,w,c
  2249   00158C  0A80               	xorlw	128
  2250   00158E  0F97               	addlw	151
  2251   001590  B0D8               	btfsc	status,0,c
  2252   001592  EFCD  F00A         	goto	u1661
  2253   001596  EFCF  F00A         	goto	u1660
  2254   00159A                     u1661:
  2255   00159A  EFD1  F00A         	goto	l2127
  2256   00159E                     u1660:
  2257   00159E  EF94  F00A         	goto	l2107
  2258   0015A2                     l2127:
  2259   0015A2  90D8               	bcf	status,0,c
  2260   0015A4  323E               	rrcf	(___fltol@f1+3)^0,f,c
  2261   0015A6  323D               	rrcf	(___fltol@f1+2)^0,f,c
  2262   0015A8  323C               	rrcf	(___fltol@f1+1)^0,f,c
  2263   0015AA  323B               	rrcf	___fltol@f1^0,f,c
  2264   0015AC  3E44               	incfsz	___fltol@exp1^0,f,c
  2265   0015AE  EFD1  F00A         	goto	l2127
  2266   0015B2  EFF3  F00A         	goto	l2141
  2267   0015B6                     l2131:
  2268   0015B6  0E1F               	movlw	31
  2269   0015B8  6444               	cpfsgt	___fltol@exp1^0,c
  2270   0015BA  EFE1  F00A         	goto	u1671
  2271   0015BE  EFE3  F00A         	goto	u1670
  2272   0015C2                     u1671:
  2273   0015C2  EFEB  F00A         	goto	l2139
  2274   0015C6                     u1670:
  2275   0015C6  EF94  F00A         	goto	l2107
  2276   0015CA                     l2137:
  2277   0015CA  90D8               	bcf	status,0,c
  2278   0015CC  363B               	rlcf	___fltol@f1^0,f,c
  2279   0015CE  363C               	rlcf	(___fltol@f1+1)^0,f,c
  2280   0015D0  363D               	rlcf	(___fltol@f1+2)^0,f,c
  2281   0015D2  363E               	rlcf	(___fltol@f1+3)^0,f,c
  2282   0015D4  0644               	decf	___fltol@exp1^0,f,c
  2283   0015D6                     l2139:
  2284   0015D6  5044               	movf	___fltol@exp1^0,w,c
  2285   0015D8  A4D8               	btfss	status,2,c
  2286   0015DA  EFF1  F00A         	goto	u1681
  2287   0015DE  EFF3  F00A         	goto	u1680
  2288   0015E2                     u1681:
  2289   0015E2  EFE5  F00A         	goto	l2137
  2290   0015E6                     u1680:
  2291   0015E6                     l2141:
  2292   0015E6  5043               	movf	___fltol@sign1^0,w,c
  2293   0015E8  B4D8               	btfsc	status,2,c
  2294   0015EA  EFF9  F00A         	goto	u1691
  2295   0015EE  EFFB  F00A         	goto	u1690
  2296   0015F2                     u1691:
  2297   0015F2  EF03  F00B         	goto	l2145
  2298   0015F6                     u1690:
  2299   0015F6  1E3E               	comf	(___fltol@f1+3)^0,f,c
  2300   0015F8  1E3D               	comf	(___fltol@f1+2)^0,f,c
  2301   0015FA  1E3C               	comf	(___fltol@f1+1)^0,f,c
  2302   0015FC  6C3B               	negf	___fltol@f1^0,c
  2303   0015FE  0E00               	movlw	0
  2304   001600  223C               	addwfc	(___fltol@f1+1)^0,f,c
  2305   001602  223D               	addwfc	(___fltol@f1+2)^0,f,c
  2306   001604  223E               	addwfc	(___fltol@f1+3)^0,f,c
  2307   001606                     l2145:
  2308   001606  C03B  F03B         	movff	___fltol@f1,?___fltol
  2309   00160A  C03C  F03C         	movff	___fltol@f1+1,?___fltol+1
  2310   00160E  C03D  F03D         	movff	___fltol@f1+2,?___fltol+2
  2311   001612  C03E  F03E         	movff	___fltol@f1+3,?___fltol+3
  2312   001616                     l513:
  2313   001616  0012               	return		;funcret
  2314   001618                     __end_of___fltol:
  2315                           	callstack 0
  2316                           
  2317 ;; *************** function ___flsub *****************
  2318 ;; Defined at:
  2319 ;;		line 245 in file "C:\Program Files\Microchip\xc8\v2.50\pic\sources\c90\common\sprcadd.c"
  2320 ;; Parameters:    Size  Location     Type
  2321 ;;  b               4   78[COMRAM] long 
  2322 ;;  a               4   82[COMRAM] long 
  2323 ;; Auto vars:     Size  Location     Type
  2324 ;;		None
  2325 ;; Return value:  Size  Location     Type
  2326 ;;                  4   78[COMRAM] long 
  2327 ;; Registers used:
  2328 ;;		wreg, status,2, status,0, cstack
  2329 ;; Tracked objects:
  2330 ;;		On entry : 0/0
  2331 ;;		On exit  : 0/0
  2332 ;;		Unchanged: 0/0
  2333 ;; Data sizes:     COMRAM   BANK0   BANK1   BANK2   BANK3   BANK4   BANK5   BANK6   BANK7
  2334 ;;      Params:         8       0       0       0       0       0       0       0       0
  2335 ;;      Locals:         0       0       0       0       0       0       0       0       0
  2336 ;;      Temps:          0       0       0       0       0       0       0       0       0
  2337 ;;      Totals:         8       0       0       0       0       0       0       0       0
  2338 ;;Total ram usage:        8 bytes
  2339 ;; Hardware stack levels used: 1
  2340 ;; Hardware stack levels required when called: 3
  2341 ;; This function calls:
  2342 ;;		___fladd
  2343 ;; This function is called by:
  2344 ;;		_round
  2345 ;; This function uses a non-reentrant model
  2346 ;;
  2347                           
  2348                           	psect	text12
  2349   001AE6                     __ptext12:
  2350                           	callstack 0
  2351   001AE6                     ___flsub:
  2352                           	callstack 24
  2353   001AE6  0E00               	movlw	0
  2354   001AE8  1A53               	xorwf	___flsub@a^0,f,c
  2355   001AEA  0E00               	movlw	0
  2356   001AEC  1A54               	xorwf	(___flsub@a+1)^0,f,c
  2357   001AEE  0E00               	movlw	0
  2358   001AF0  1A55               	xorwf	(___flsub@a+2)^0,f,c
  2359   001AF2  0E80               	movlw	128
  2360   001AF4  1A56               	xorwf	(___flsub@a+3)^0,f,c
  2361   001AF6  C04F  F012         	movff	___flsub@b,___fladd@b
  2362   001AFA  C050  F013         	movff	___flsub@b+1,___fladd@b+1
  2363   001AFE  C051  F014         	movff	___flsub@b+2,___fladd@b+2
  2364   001B02  C052  F015         	movff	___flsub@b+3,___fladd@b+3
  2365   001B06  C053  F016         	movff	___flsub@a,___fladd@a
  2366   001B0A  C054  F017         	movff	___flsub@a+1,___fladd@a+1
  2367   001B0E  C055  F018         	movff	___flsub@a+2,___fladd@a+2
  2368   001B12  C056  F019         	movff	___flsub@a+3,___fladd@a+3
  2369   001B16  EC01  F004         	call	___fladd	;wreg free
  2370   001B1A  C012  F04F         	movff	?___fladd,?___flsub
  2371   001B1E  C013  F050         	movff	?___fladd+1,?___flsub+1
  2372   001B22  C014  F051         	movff	?___fladd+2,?___flsub+2
  2373   001B26  C015  F052         	movff	?___fladd+3,?___flsub+3
  2374   001B2A  0012               	return		;funcret
  2375   001B2C                     __end_of___flsub:
  2376                           	callstack 0
  2377                           
  2378 ;; *************** function ___fladd *****************
  2379 ;; Defined at:
  2380 ;;		line 10 in file "C:\Program Files\Microchip\xc8\v2.50\pic\sources\c90\common\sprcadd.c"
  2381 ;; Parameters:    Size  Location     Type
  2382 ;;  b               4   17[COMRAM] long 
  2383 ;;  a               4   21[COMRAM] long 
  2384 ;; Auto vars:     Size  Location     Type
  2385 ;;  grs             1   32[COMRAM] unsigned char 
  2386 ;;  bexp            1   31[COMRAM] unsigned char 
  2387 ;;  aexp            1   30[COMRAM] unsigned char 
  2388 ;;  signs           1   29[COMRAM] unsigned char 
  2389 ;; Return value:  Size  Location     Type
  2390 ;;                  4   17[COMRAM] unsigned char 
  2391 ;; Registers used:
  2392 ;;		wreg, status,2, status,0
  2393 ;; Tracked objects:
  2394 ;;		On entry : 0/0
  2395 ;;		On exit  : 0/0
  2396 ;;		Unchanged: 0/0
  2397 ;; Data sizes:     COMRAM   BANK0   BANK1   BANK2   BANK3   BANK4   BANK5   BANK6   BANK7
  2398 ;;      Params:         8       0       0       0       0       0       0       0       0
  2399 ;;      Locals:         4       0       0       0       0       0       0       0       0
  2400 ;;      Temps:          4       0       0       0       0       0       0       0       0
  2401 ;;      Totals:        16       0       0       0       0       0       0       0       0
  2402 ;;Total ram usage:       16 bytes
  2403 ;; Hardware stack levels used: 1
  2404 ;; Hardware stack levels required when called: 2
  2405 ;; This function calls:
  2406 ;;		Nothing
  2407 ;; This function is called by:
  2408 ;;		_pwm1_ini
  2409 ;;		___flsub
  2410 ;;		_round
  2411 ;; This function uses a non-reentrant model
  2412 ;;
  2413                           
  2414                           	psect	text13
  2415   000802                     __ptext13:
  2416                           	callstack 0
  2417   000802                     ___fladd:
  2418                           	callstack 24
  2419   000802  5015               	movf	(___fladd@b+3)^0,w,c
  2420   000804  0B80               	andlw	128
  2421   000806  6E1E               	movwf	___fladd@signs^0,c
  2422   000808  5015               	movf	(___fladd@b+3)^0,w,c
  2423   00080A  2415               	addwf	(___fladd@b+3)^0,w,c
  2424   00080C  6E20               	movwf	___fladd@bexp^0,c
  2425   00080E  AE14               	btfss	(___fladd@b+2)^0,7,c
  2426   000810  EF0C  F004         	goto	u1241
  2427   000814  EF0E  F004         	goto	u1240
  2428   000818                     u1241:
  2429   000818  EF0F  F004         	goto	l1917
  2430   00081C                     u1240:
  2431   00081C  8020               	bsf	___fladd@bexp^0,0,c
  2432   00081E                     l1917:
  2433   00081E  5020               	movf	___fladd@bexp^0,w,c
  2434   000820  B4D8               	btfsc	status,2,c
  2435   000822  EF15  F004         	goto	u1251
  2436   000826  EF17  F004         	goto	u1250
  2437   00082A                     u1251:
  2438   00082A  EF2B  F004         	goto	l1927
  2439   00082E                     u1250:
  2440   00082E  2820               	incf	___fladd@bexp^0,w,c
  2441   000830  A4D8               	btfss	status,2,c
  2442   000832  EF1D  F004         	goto	u1261
  2443   000836  EF1F  F004         	goto	u1260
  2444   00083A                     u1261:
  2445   00083A  EF27  F004         	goto	l1923
  2446   00083E                     u1260:
  2447   00083E  0E00               	movlw	0
  2448   000840  6E12               	movwf	___fladd@b^0,c
  2449   000842  0E00               	movlw	0
  2450   000844  6E13               	movwf	(___fladd@b+1)^0,c
  2451   000846  0E00               	movlw	0
  2452   000848  6E14               	movwf	(___fladd@b+2)^0,c
  2453   00084A  0E00               	movlw	0
  2454   00084C  6E15               	movwf	(___fladd@b+3)^0,c
  2455   00084E                     l1923:
  2456   00084E  8E14               	bsf	(___fladd@b+2)^0,7,c
  2457   000850  6A15               	clrf	(___fladd@b+3)^0,c
  2458   000852  EF33  F004         	goto	l1929
  2459   000856                     l1927:
  2460   000856  0E00               	movlw	0
  2461   000858  6E12               	movwf	___fladd@b^0,c
  2462   00085A  0E00               	movlw	0
  2463   00085C  6E13               	movwf	(___fladd@b+1)^0,c
  2464   00085E  0E00               	movlw	0
  2465   000860  6E14               	movwf	(___fladd@b+2)^0,c
  2466   000862  0E00               	movlw	0
  2467   000864  6E15               	movwf	(___fladd@b+3)^0,c
  2468   000866                     l1929:
  2469   000866  5019               	movf	(___fladd@a+3)^0,w,c
  2470   000868  0B80               	andlw	128
  2471   00086A  6E1F               	movwf	___fladd@aexp^0,c
  2472   00086C  501E               	movf	___fladd@signs^0,w,c
  2473   00086E  181F               	xorwf	___fladd@aexp^0,w,c
  2474   000870  B4D8               	btfsc	status,2,c
  2475   000872  EF3D  F004         	goto	u1271
  2476   000876  EF3F  F004         	goto	u1270
  2477   00087A                     u1271:
  2478   00087A  EF40  F004         	goto	l1935
  2479   00087E                     u1270:
  2480   00087E  8C1E               	bsf	___fladd@signs^0,6,c
  2481   000880                     l1935:
  2482   000880  5019               	movf	(___fladd@a+3)^0,w,c
  2483   000882  2419               	addwf	(___fladd@a+3)^0,w,c
  2484   000884  6E1F               	movwf	___fladd@aexp^0,c
  2485   000886  AE18               	btfss	(___fladd@a+2)^0,7,c
  2486   000888  EF48  F004         	goto	u1281
  2487   00088C  EF4A  F004         	goto	u1280
  2488   000890                     u1281:
  2489   000890  EF4B  F004         	goto	l1941
  2490   000894                     u1280:
  2491   000894  801F               	bsf	___fladd@aexp^0,0,c
  2492   000896                     l1941:
  2493   000896  501F               	movf	___fladd@aexp^0,w,c
  2494   000898  B4D8               	btfsc	status,2,c
  2495   00089A  EF51  F004         	goto	u1291
  2496   00089E  EF53  F004         	goto	u1290
  2497   0008A2                     u1291:
  2498   0008A2  EF67  F004         	goto	l1951
  2499   0008A6                     u1290:
  2500   0008A6  281F               	incf	___fladd@aexp^0,w,c
  2501   0008A8  A4D8               	btfss	status,2,c
  2502   0008AA  EF59  F004         	goto	u1301
  2503   0008AE  EF5B  F004         	goto	u1300
  2504   0008B2                     u1301:
  2505   0008B2  EF63  F004         	goto	l1947
  2506   0008B6                     u1300:
  2507   0008B6  0E00               	movlw	0
  2508   0008B8  6E16               	movwf	___fladd@a^0,c
  2509   0008BA  0E00               	movlw	0
  2510   0008BC  6E17               	movwf	(___fladd@a+1)^0,c
  2511   0008BE  0E00               	movlw	0
  2512   0008C0  6E18               	movwf	(___fladd@a+2)^0,c
  2513   0008C2  0E00               	movlw	0
  2514   0008C4  6E19               	movwf	(___fladd@a+3)^0,c
  2515   0008C6                     l1947:
  2516   0008C6  8E18               	bsf	(___fladd@a+2)^0,7,c
  2517   0008C8  6A19               	clrf	(___fladd@a+3)^0,c
  2518   0008CA  EF6F  F004         	goto	l1953
  2519   0008CE                     l1951:
  2520   0008CE  0E00               	movlw	0
  2521   0008D0  6E16               	movwf	___fladd@a^0,c
  2522   0008D2  0E00               	movlw	0
  2523   0008D4  6E17               	movwf	(___fladd@a+1)^0,c
  2524   0008D6  0E00               	movlw	0
  2525   0008D8  6E18               	movwf	(___fladd@a+2)^0,c
  2526   0008DA  0E00               	movlw	0
  2527   0008DC  6E19               	movwf	(___fladd@a+3)^0,c
  2528   0008DE                     l1953:
  2529   0008DE  5020               	movf	___fladd@bexp^0,w,c
  2530   0008E0  5C1F               	subwf	___fladd@aexp^0,w,c
  2531   0008E2  B0D8               	btfsc	status,0,c
  2532   0008E4  EF76  F004         	goto	u1311
  2533   0008E8  EF78  F004         	goto	u1310
  2534   0008EC                     u1311:
  2535   0008EC  EF9F  F004         	goto	l1989
  2536   0008F0                     u1310:
  2537   0008F0  AC1E               	btfss	___fladd@signs^0,6,c
  2538   0008F2  EF7D  F004         	goto	u1321
  2539   0008F6  EF7F  F004         	goto	u1320
  2540   0008FA                     u1321:
  2541   0008FA  EF81  F004         	goto	l1959
  2542   0008FE                     u1320:
  2543   0008FE  0E80               	movlw	128
  2544   000900  1A1E               	xorwf	___fladd@signs^0,f,c
  2545   000902                     l1959:
  2546   000902  C020  F021         	movff	___fladd@bexp,___fladd@grs
  2547   000906  C01F  F020         	movff	___fladd@aexp,___fladd@bexp
  2548   00090A  C021  F01F         	movff	___fladd@grs,___fladd@aexp
  2549   00090E  C012  F021         	movff	___fladd@b,___fladd@grs
  2550   000912  C016  F012         	movff	___fladd@a,___fladd@b
  2551   000916  C021  F016         	movff	___fladd@grs,___fladd@a
  2552   00091A  C013  F021         	movff	___fladd@b+1,___fladd@grs
  2553   00091E  C017  F013         	movff	___fladd@a+1,___fladd@b+1
  2554   000922  C021  F017         	movff	___fladd@grs,___fladd@a+1
  2555   000926  C014  F021         	movff	___fladd@b+2,___fladd@grs
  2556   00092A  C018  F014         	movff	___fladd@a+2,___fladd@b+2
  2557   00092E  C021  F018         	movff	___fladd@grs,___fladd@a+2
  2558   000932  C015  F021         	movff	___fladd@b+3,___fladd@grs
  2559   000936  C019  F015         	movff	___fladd@a+3,___fladd@b+3
  2560   00093A  C021  F019         	movff	___fladd@grs,___fladd@a+3
  2561   00093E                     l1989:
  2562   00093E  6A21               	clrf	___fladd@grs^0,c
  2563   000940  5020               	movf	___fladd@bexp^0,w,c
  2564   000942  C01F  F01A         	movff	___fladd@aexp,??___fladd
  2565   000946  6A1B               	clrf	(??___fladd+1)^0,c
  2566   000948  5E1A               	subwf	??___fladd^0,f,c
  2567   00094A  0E00               	movlw	0
  2568   00094C  5A1B               	subwfb	(??___fladd+1)^0,f,c
  2569   00094E  BE1B               	btfsc	(??___fladd+1)^0,7,c
  2570   000950  EFB3  F004         	goto	u1331
  2571   000954  501B               	movf	(??___fladd+1)^0,w,c
  2572   000956  E109               	bnz	u1330
  2573   000958  0E1A               	movlw	26
  2574   00095A  5C1A               	subwf	??___fladd^0,w,c
  2575   00095C  A0D8               	btfss	status,0,c
  2576   00095E  EFB3  F004         	goto	u1331
  2577   000962  EFB5  F004         	goto	u1330
  2578   000966                     u1331:
  2579   000966  EFEC  F004         	goto	l741
  2580   00096A                     u1330:
  2581   00096A  5012               	movf	___fladd@b^0,w,c
  2582   00096C  1013               	iorwf	(___fladd@b+1)^0,w,c
  2583   00096E  1014               	iorwf	(___fladd@b+2)^0,w,c
  2584   000970  1015               	iorwf	(___fladd@b+3)^0,w,c
  2585   000972  A4D8               	btfss	status,2,c
  2586   000974  EFBE  F004         	goto	u1341
  2587   000978  EFC1  F004         	goto	u1340
  2588   00097C                     u1341:
  2589   00097C  0E01               	movlw	1
  2590   00097E  EFC2  F004         	goto	u1350
  2591   000982                     u1340:
  2592   000982  0E00               	movlw	0
  2593   000984                     u1350:
  2594   000984  6E21               	movwf	___fladd@grs^0,c
  2595   000986  0E00               	movlw	0
  2596   000988  6E12               	movwf	___fladd@b^0,c
  2597   00098A  0E00               	movlw	0
  2598   00098C  6E13               	movwf	(___fladd@b+1)^0,c
  2599   00098E  0E00               	movlw	0
  2600   000990  6E14               	movwf	(___fladd@b+2)^0,c
  2601   000992  0E00               	movlw	0
  2602   000994  6E15               	movwf	(___fladd@b+3)^0,c
  2603   000996  C01F  F020         	movff	___fladd@aexp,___fladd@bexp
  2604   00099A  EFF5  F004         	goto	l740
  2605   00099E                     l742:
  2606   00099E  A021               	btfss	___fladd@grs^0,0,c
  2607   0009A0  EFD4  F004         	goto	u1361
  2608   0009A4  EFD6  F004         	goto	u1360
  2609   0009A8                     u1361:
  2610   0009A8  EFDC  F004         	goto	l1999
  2611   0009AC                     u1360:
  2612   0009AC  90D8               	bcf	status,0,c
  2613   0009AE  3021               	rrcf	___fladd@grs^0,w,c
  2614   0009B0  0901               	iorlw	1
  2615   0009B2  6E21               	movwf	___fladd@grs^0,c
  2616   0009B4  EFDE  F004         	goto	l2001
  2617   0009B8                     l1999:
  2618   0009B8  90D8               	bcf	status,0,c
  2619   0009BA  3221               	rrcf	___fladd@grs^0,f,c
  2620   0009BC                     l2001:
  2621   0009BC  A012               	btfss	___fladd@b^0,0,c
  2622   0009BE  EFE3  F004         	goto	u1371
  2623   0009C2  EFE5  F004         	goto	u1370
  2624   0009C6                     u1371:
  2625   0009C6  EFE6  F004         	goto	l2005
  2626   0009CA                     u1370:
  2627   0009CA  8E21               	bsf	___fladd@grs^0,7,c
  2628   0009CC                     l2005:
  2629   0009CC  3415               	rlcf	(___fladd@b+3)^0,w,c
  2630   0009CE  3215               	rrcf	(___fladd@b+3)^0,f,c
  2631   0009D0  3214               	rrcf	(___fladd@b+2)^0,f,c
  2632   0009D2  3213               	rrcf	(___fladd@b+1)^0,f,c
  2633   0009D4  3212               	rrcf	___fladd@b^0,f,c
  2634   0009D6  2A20               	incf	___fladd@bexp^0,f,c
  2635   0009D8                     l741:
  2636   0009D8  501F               	movf	___fladd@aexp^0,w,c
  2637   0009DA  5C20               	subwf	___fladd@bexp^0,w,c
  2638   0009DC  A0D8               	btfss	status,0,c
  2639   0009DE  EFF3  F004         	goto	u1381
  2640   0009E2  EFF5  F004         	goto	u1380
  2641   0009E6                     u1381:
  2642   0009E6  EFCF  F004         	goto	l742
  2643   0009EA                     u1380:
  2644   0009EA                     l740:
  2645   0009EA  BC1E               	btfsc	___fladd@signs^0,6,c
  2646   0009EC  EFFA  F004         	goto	u1391
  2647   0009F0  EFFC  F004         	goto	u1390
  2648   0009F4                     u1391:
  2649   0009F4  EF3C  F005         	goto	l2033
  2650   0009F8                     u1390:
  2651   0009F8  5020               	movf	___fladd@bexp^0,w,c
  2652   0009FA  A4D8               	btfss	status,2,c
  2653   0009FC  EF02  F005         	goto	u1401
  2654   000A00  EF04  F005         	goto	u1400
  2655   000A04                     u1401:
  2656   000A04  EF0E  F005         	goto	l2015
  2657   000A08                     u1400:
  2658   000A08  0E00               	movlw	0
  2659   000A0A  6E12               	movwf	?___fladd^0,c
  2660   000A0C  0E00               	movlw	0
  2661   000A0E  6E13               	movwf	(?___fladd+1)^0,c
  2662   000A10  0E00               	movlw	0
  2663   000A12  6E14               	movwf	(?___fladd+2)^0,c
  2664   000A14  0E00               	movlw	0
  2665   000A16  6E15               	movwf	(?___fladd+3)^0,c
  2666   000A18  EF5B  F006         	goto	l749
  2667   000A1C                     l2015:
  2668   000A1C  5016               	movf	___fladd@a^0,w,c
  2669   000A1E  2612               	addwf	___fladd@b^0,f,c
  2670   000A20  5017               	movf	(___fladd@a+1)^0,w,c
  2671   000A22  2213               	addwfc	(___fladd@b+1)^0,f,c
  2672   000A24  5018               	movf	(___fladd@a+2)^0,w,c
  2673   000A26  2214               	addwfc	(___fladd@b+2)^0,f,c
  2674   000A28  5019               	movf	(___fladd@a+3)^0,w,c
  2675   000A2A  2215               	addwfc	(___fladd@b+3)^0,f,c
  2676   000A2C  A015               	btfss	(___fladd@b+3)^0,0,c
  2677   000A2E  EF1B  F005         	goto	u1411
  2678   000A32  EF1D  F005         	goto	u1410
  2679   000A36                     u1411:
  2680   000A36  EFC9  F005         	goto	l754
  2681   000A3A                     u1410:
  2682   000A3A  A021               	btfss	___fladd@grs^0,0,c
  2683   000A3C  EF22  F005         	goto	u1421
  2684   000A40  EF24  F005         	goto	u1420
  2685   000A44                     u1421:
  2686   000A44  EF2A  F005         	goto	l2023
  2687   000A48                     u1420:
  2688   000A48  90D8               	bcf	status,0,c
  2689   000A4A  3021               	rrcf	___fladd@grs^0,w,c
  2690   000A4C  0901               	iorlw	1
  2691   000A4E  6E21               	movwf	___fladd@grs^0,c
  2692   000A50  EF2C  F005         	goto	l2025
  2693   000A54                     l2023:
  2694   000A54  90D8               	bcf	status,0,c
  2695   000A56  3221               	rrcf	___fladd@grs^0,f,c
  2696   000A58                     l2025:
  2697   000A58  A012               	btfss	___fladd@b^0,0,c
  2698   000A5A  EF31  F005         	goto	u1431
  2699   000A5E  EF33  F005         	goto	u1430
  2700   000A62                     u1431:
  2701   000A62  EF34  F005         	goto	l2029
  2702   000A66                     u1430:
  2703   000A66  8E21               	bsf	___fladd@grs^0,7,c
  2704   000A68                     l2029:
  2705   000A68  3415               	rlcf	(___fladd@b+3)^0,w,c
  2706   000A6A  3215               	rrcf	(___fladd@b+3)^0,f,c
  2707   000A6C  3214               	rrcf	(___fladd@b+2)^0,f,c
  2708   000A6E  3213               	rrcf	(___fladd@b+1)^0,f,c
  2709   000A70  3212               	rrcf	___fladd@b^0,f,c
  2710   000A72  2A20               	incf	___fladd@bexp^0,f,c
  2711   000A74  EFC9  F005         	goto	l754
  2712   000A78                     l2033:
  2713   000A78  5016               	movf	___fladd@a^0,w,c
  2714   000A7A  5C12               	subwf	___fladd@b^0,w,c
  2715   000A7C  5017               	movf	(___fladd@a+1)^0,w,c
  2716   000A7E  5813               	subwfb	(___fladd@b+1)^0,w,c
  2717   000A80  5018               	movf	(___fladd@a+2)^0,w,c
  2718   000A82  5814               	subwfb	(___fladd@b+2)^0,w,c
  2719   000A84  5015               	movf	(___fladd@b+3)^0,w,c
  2720   000A86  0A80               	xorlw	128
  2721   000A88  6E1A               	movwf	??___fladd^0,c
  2722   000A8A  5019               	movf	(___fladd@a+3)^0,w,c
  2723   000A8C  0A80               	xorlw	128
  2724   000A8E  581A               	subwfb	??___fladd^0,w,c
  2725   000A90  B0D8               	btfsc	status,0,c
  2726   000A92  EF4D  F005         	goto	u1441
  2727   000A96  EF4F  F005         	goto	u1440
  2728   000A9A                     u1441:
  2729   000A9A  EF7A  F005         	goto	l2043
  2730   000A9E                     u1440:
  2731   000A9E  5012               	movf	___fladd@b^0,w,c
  2732   000AA0  5C16               	subwf	___fladd@a^0,w,c
  2733   000AA2  6E1A               	movwf	??___fladd^0,c
  2734   000AA4  5013               	movf	(___fladd@b+1)^0,w,c
  2735   000AA6  5817               	subwfb	(___fladd@a+1)^0,w,c
  2736   000AA8  6E1B               	movwf	(??___fladd+1)^0,c
  2737   000AAA  5014               	movf	(___fladd@b+2)^0,w,c
  2738   000AAC  5818               	subwfb	(___fladd@a+2)^0,w,c
  2739   000AAE  6E1C               	movwf	(??___fladd+2)^0,c
  2740   000AB0  5015               	movf	(___fladd@b+3)^0,w,c
  2741   000AB2  5819               	subwfb	(___fladd@a+3)^0,w,c
  2742   000AB4  6E1D               	movwf	(??___fladd+3)^0,c
  2743   000AB6  0EFF               	movlw	255
  2744   000AB8  241A               	addwf	??___fladd^0,w,c
  2745   000ABA  6E12               	movwf	___fladd@b^0,c
  2746   000ABC  0EFF               	movlw	255
  2747   000ABE  201B               	addwfc	(??___fladd+1)^0,w,c
  2748   000AC0  6E13               	movwf	(___fladd@b+1)^0,c
  2749   000AC2  0EFF               	movlw	255
  2750   000AC4  201C               	addwfc	(??___fladd+2)^0,w,c
  2751   000AC6  6E14               	movwf	(___fladd@b+2)^0,c
  2752   000AC8  0EFF               	movlw	255
  2753   000ACA  201D               	addwfc	(??___fladd+3)^0,w,c
  2754   000ACC  6E15               	movwf	(___fladd@b+3)^0,c
  2755   000ACE  0E80               	movlw	128
  2756   000AD0  1A1E               	xorwf	___fladd@signs^0,f,c
  2757   000AD2  6C21               	negf	___fladd@grs^0,c
  2758   000AD4  5021               	movf	___fladd@grs^0,w,c
  2759   000AD6  A4D8               	btfss	status,2,c
  2760   000AD8  EF70  F005         	goto	u1451
  2761   000ADC  EF72  F005         	goto	u1450
  2762   000AE0                     u1451:
  2763   000AE0  EF82  F005         	goto	l757
  2764   000AE4                     u1450:
  2765   000AE4  0E01               	movlw	1
  2766   000AE6  2612               	addwf	___fladd@b^0,f,c
  2767   000AE8  0E00               	movlw	0
  2768   000AEA  2213               	addwfc	(___fladd@b+1)^0,f,c
  2769   000AEC  2214               	addwfc	(___fladd@b+2)^0,f,c
  2770   000AEE  2215               	addwfc	(___fladd@b+3)^0,f,c
  2771   000AF0  EF82  F005         	goto	l757
  2772   000AF4                     l2043:
  2773   000AF4  5016               	movf	___fladd@a^0,w,c
  2774   000AF6  5E12               	subwf	___fladd@b^0,f,c
  2775   000AF8  5017               	movf	(___fladd@a+1)^0,w,c
  2776   000AFA  5A13               	subwfb	(___fladd@b+1)^0,f,c
  2777   000AFC  5018               	movf	(___fladd@a+2)^0,w,c
  2778   000AFE  5A14               	subwfb	(___fladd@b+2)^0,f,c
  2779   000B00  5019               	movf	(___fladd@a+3)^0,w,c
  2780   000B02  5A15               	subwfb	(___fladd@b+3)^0,f,c
  2781   000B04                     l757:
  2782   000B04  5012               	movf	___fladd@b^0,w,c
  2783   000B06  1013               	iorwf	(___fladd@b+1)^0,w,c
  2784   000B08  1014               	iorwf	(___fladd@b+2)^0,w,c
  2785   000B0A  1015               	iorwf	(___fladd@b+3)^0,w,c
  2786   000B0C  A4D8               	btfss	status,2,c
  2787   000B0E  EF8B  F005         	goto	u1461
  2788   000B12  EF8D  F005         	goto	u1460
  2789   000B16                     u1461:
  2790   000B16  EFC2  F005         	goto	l2067
  2791   000B1A                     u1460:
  2792   000B1A  5021               	movf	___fladd@grs^0,w,c
  2793   000B1C  A4D8               	btfss	status,2,c
  2794   000B1E  EF93  F005         	goto	u1471
  2795   000B22  EF95  F005         	goto	u1470
  2796   000B26                     u1471:
  2797   000B26  EFC2  F005         	goto	l2067
  2798   000B2A                     u1470:
  2799   000B2A  0E00               	movlw	0
  2800   000B2C  6E12               	movwf	?___fladd^0,c
  2801   000B2E  0E00               	movlw	0
  2802   000B30  6E13               	movwf	(?___fladd+1)^0,c
  2803   000B32  0E00               	movlw	0
  2804   000B34  6E14               	movwf	(?___fladd+2)^0,c
  2805   000B36  0E00               	movlw	0
  2806   000B38  6E15               	movwf	(?___fladd+3)^0,c
  2807   000B3A  EF5B  F006         	goto	l749
  2808   000B3E                     l2051:
  2809   000B3E  90D8               	bcf	status,0,c
  2810   000B40  3612               	rlcf	___fladd@b^0,f,c
  2811   000B42  3613               	rlcf	(___fladd@b+1)^0,f,c
  2812   000B44  3614               	rlcf	(___fladd@b+2)^0,f,c
  2813   000B46  3615               	rlcf	(___fladd@b+3)^0,f,c
  2814   000B48  AE21               	btfss	___fladd@grs^0,7,c
  2815   000B4A  EFA9  F005         	goto	u1481
  2816   000B4E  EFAB  F005         	goto	u1480
  2817   000B52                     u1481:
  2818   000B52  EFAC  F005         	goto	l2057
  2819   000B56                     u1480:
  2820   000B56  8012               	bsf	___fladd@b^0,0,c
  2821   000B58                     l2057:
  2822   000B58  A021               	btfss	___fladd@grs^0,0,c
  2823   000B5A  EFB1  F005         	goto	u1491
  2824   000B5E  EFB3  F005         	goto	u1490
  2825   000B62                     u1491:
  2826   000B62  EFB7  F005         	goto	l2061
  2827   000B66                     u1490:
  2828   000B66  80D8               	bsf	status,0,c
  2829   000B68  3621               	rlcf	___fladd@grs^0,f,c
  2830   000B6A  EFB9  F005         	goto	l2063
  2831   000B6E                     l2061:
  2832   000B6E  90D8               	bcf	status,0,c
  2833   000B70  3621               	rlcf	___fladd@grs^0,f,c
  2834   000B72                     l2063:
  2835   000B72  5020               	movf	___fladd@bexp^0,w,c
  2836   000B74  B4D8               	btfsc	status,2,c
  2837   000B76  EFBF  F005         	goto	u1501
  2838   000B7A  EFC1  F005         	goto	u1500
  2839   000B7E                     u1501:
  2840   000B7E  EFC2  F005         	goto	l2067
  2841   000B82                     u1500:
  2842   000B82  0620               	decf	___fladd@bexp^0,f,c
  2843   000B84                     l2067:
  2844   000B84  AE14               	btfss	(___fladd@b+2)^0,7,c
  2845   000B86  EFC7  F005         	goto	u1511
  2846   000B8A  EFC9  F005         	goto	u1510
  2847   000B8E                     u1511:
  2848   000B8E  EF9F  F005         	goto	l2051
  2849   000B92                     u1510:
  2850   000B92                     l754:
  2851   000B92  6A1F               	clrf	___fladd@aexp^0,c
  2852   000B94  AE21               	btfss	___fladd@grs^0,7,c
  2853   000B96  EFCF  F005         	goto	u1521
  2854   000B9A  EFD1  F005         	goto	u1520
  2855   000B9E                     u1521:
  2856   000B9E  EFE9  F005         	goto	l766
  2857   000BA2                     u1520:
  2858   000BA2  C021  F01A         	movff	___fladd@grs,??___fladd
  2859   000BA6  0E7F               	movlw	127
  2860   000BA8  161A               	andwf	??___fladd^0,f,c
  2861   000BAA  B4D8               	btfsc	status,2,c
  2862   000BAC  EFDA  F005         	goto	u1531
  2863   000BB0  EFDC  F005         	goto	u1530
  2864   000BB4                     u1531:
  2865   000BB4  EFE0  F005         	goto	l767
  2866   000BB8                     u1530:
  2867   000BB8                     l2071:
  2868   000BB8  0E01               	movlw	1
  2869   000BBA  6E1F               	movwf	___fladd@aexp^0,c
  2870   000BBC  EFE9  F005         	goto	l766
  2871   000BC0                     l767:
  2872   000BC0  A012               	btfss	___fladd@b^0,0,c
  2873   000BC2  EFE5  F005         	goto	u1541
  2874   000BC6  EFE7  F005         	goto	u1540
  2875   000BCA                     u1541:
  2876   000BCA  EFE9  F005         	goto	l766
  2877   000BCE                     u1540:
  2878   000BCE  EFDC  F005         	goto	l2071
  2879   000BD2                     l766:
  2880   000BD2  501F               	movf	___fladd@aexp^0,w,c
  2881   000BD4  B4D8               	btfsc	status,2,c
  2882   000BD6  EFEF  F005         	goto	u1551
  2883   000BDA  EFF1  F005         	goto	u1550
  2884   000BDE                     u1551:
  2885   000BDE  EF1C  F006         	goto	l2083
  2886   000BE2                     u1550:
  2887   000BE2  0E01               	movlw	1
  2888   000BE4  2612               	addwf	___fladd@b^0,f,c
  2889   000BE6  0E00               	movlw	0
  2890   000BE8  2213               	addwfc	(___fladd@b+1)^0,f,c
  2891   000BEA  2214               	addwfc	(___fladd@b+2)^0,f,c
  2892   000BEC  2215               	addwfc	(___fladd@b+3)^0,f,c
  2893   000BEE  A015               	btfss	(___fladd@b+3)^0,0,c
  2894   000BF0  EFFC  F005         	goto	u1561
  2895   000BF4  EFFE  F005         	goto	u1560
  2896   000BF8                     u1561:
  2897   000BF8  EF1C  F006         	goto	l2083
  2898   000BFC                     u1560:
  2899   000BFC  C012  F01A         	movff	___fladd@b,??___fladd
  2900   000C00  C013  F01B         	movff	___fladd@b+1,??___fladd+1
  2901   000C04  C014  F01C         	movff	___fladd@b+2,??___fladd+2
  2902   000C08  C015  F01D         	movff	___fladd@b+3,??___fladd+3
  2903   000C0C  341D               	rlcf	(??___fladd+3)^0,w,c
  2904   000C0E  321D               	rrcf	(??___fladd+3)^0,f,c
  2905   000C10  321C               	rrcf	(??___fladd+2)^0,f,c
  2906   000C12  321B               	rrcf	(??___fladd+1)^0,f,c
  2907   000C14  321A               	rrcf	??___fladd^0,f,c
  2908   000C16  C01A  F012         	movff	??___fladd,___fladd@b
  2909   000C1A  C01B  F013         	movff	??___fladd+1,___fladd@b+1
  2910   000C1E  C01C  F014         	movff	??___fladd+2,___fladd@b+2
  2911   000C22  C01D  F015         	movff	??___fladd+3,___fladd@b+3
  2912   000C26  2820               	incf	___fladd@bexp^0,w,c
  2913   000C28  B4D8               	btfsc	status,2,c
  2914   000C2A  EF19  F006         	goto	u1571
  2915   000C2E  EF1B  F006         	goto	u1570
  2916   000C32                     u1571:
  2917   000C32  EF1C  F006         	goto	l2083
  2918   000C36                     u1570:
  2919   000C36  2A20               	incf	___fladd@bexp^0,f,c
  2920   000C38                     l2083:
  2921   000C38  2820               	incf	___fladd@bexp^0,w,c
  2922   000C3A  B4D8               	btfsc	status,2,c
  2923   000C3C  EF22  F006         	goto	u1581
  2924   000C40  EF24  F006         	goto	u1580
  2925   000C44                     u1581:
  2926   000C44  EF2C  F006         	goto	l2087
  2927   000C48                     u1580:
  2928   000C48  5020               	movf	___fladd@bexp^0,w,c
  2929   000C4A  A4D8               	btfss	status,2,c
  2930   000C4C  EF2A  F006         	goto	u1591
  2931   000C50  EF2C  F006         	goto	u1590
  2932   000C54                     u1591:
  2933   000C54  EF3D  F006         	goto	l773
  2934   000C58                     u1590:
  2935   000C58                     l2087:
  2936   000C58  0E00               	movlw	0
  2937   000C5A  6E12               	movwf	___fladd@b^0,c
  2938   000C5C  0E00               	movlw	0
  2939   000C5E  6E13               	movwf	(___fladd@b+1)^0,c
  2940   000C60  0E00               	movlw	0
  2941   000C62  6E14               	movwf	(___fladd@b+2)^0,c
  2942   000C64  0E00               	movlw	0
  2943   000C66  6E15               	movwf	(___fladd@b+3)^0,c
  2944   000C68  5020               	movf	___fladd@bexp^0,w,c
  2945   000C6A  A4D8               	btfss	status,2,c
  2946   000C6C  EF3A  F006         	goto	u1601
  2947   000C70  EF3C  F006         	goto	u1600
  2948   000C74                     u1601:
  2949   000C74  EF3D  F006         	goto	l773
  2950   000C78                     u1600:
  2951   000C78  6A1E               	clrf	___fladd@signs^0,c
  2952   000C7A                     l773:
  2953   000C7A  A020               	btfss	___fladd@bexp^0,0,c
  2954   000C7C  EF42  F006         	goto	u1611
  2955   000C80  EF44  F006         	goto	u1610
  2956   000C84                     u1611:
  2957   000C84  EF47  F006         	goto	l2093
  2958   000C88                     u1610:
  2959   000C88  8E14               	bsf	(___fladd@b+2)^0,7,c
  2960   000C8A  EF48  F006         	goto	l2095
  2961   000C8E                     l2093:
  2962   000C8E  9E14               	bcf	(___fladd@b+2)^0,7,c
  2963   000C90                     l2095:
  2964   000C90  90D8               	bcf	status,0,c
  2965   000C92  3020               	rrcf	___fladd@bexp^0,w,c
  2966   000C94  6E15               	movwf	(___fladd@b+3)^0,c
  2967   000C96  AE1E               	btfss	___fladd@signs^0,7,c
  2968   000C98  EF50  F006         	goto	u1621
  2969   000C9C  EF52  F006         	goto	u1620
  2970   000CA0                     u1621:
  2971   000CA0  EF53  F006         	goto	l2101
  2972   000CA4                     u1620:
  2973   000CA4  8E15               	bsf	(___fladd@b+3)^0,7,c
  2974   000CA6                     l2101:
  2975   000CA6  C012  F012         	movff	___fladd@b,?___fladd
  2976   000CAA  C013  F013         	movff	___fladd@b+1,?___fladd+1
  2977   000CAE  C014  F014         	movff	___fladd@b+2,?___fladd+2
  2978   000CB2  C015  F015         	movff	___fladd@b+3,?___fladd+3
  2979   000CB6                     l749:
  2980   000CB6  0012               	return		;funcret
  2981   000CB8                     __end_of___fladd:
  2982                           	callstack 0
  2983                           
  2984 ;; *************** function ___flmul *****************
  2985 ;; Defined at:
  2986 ;;		line 8 in file "C:\Program Files\Microchip\xc8\v2.50\pic\sources\c90\common\sprcmul.c"
  2987 ;; Parameters:    Size  Location     Type
  2988 ;;  b               4   33[COMRAM] unsigned char 
  2989 ;;  a               4   37[COMRAM] unsigned char 
  2990 ;; Auto vars:     Size  Location     Type
  2991 ;;  prod            4   52[COMRAM] struct .
  2992 ;;  grs             4   46[COMRAM] unsigned long 
  2993 ;;  temp            2   56[COMRAM] struct .
  2994 ;;  bexp            1   51[COMRAM] unsigned char 
  2995 ;;  aexp            1   50[COMRAM] unsigned char 
  2996 ;;  sign            1   45[COMRAM] unsigned char 
  2997 ;; Return value:  Size  Location     Type
  2998 ;;                  4   33[COMRAM] unsigned char 
  2999 ;; Registers used:
  3000 ;;		wreg, status,2, status,0, prodl, prodh
  3001 ;; Tracked objects:
  3002 ;;		On entry : 0/0
  3003 ;;		On exit  : 0/0
  3004 ;;		Unchanged: 0/0
  3005 ;; Data sizes:     COMRAM   BANK0   BANK1   BANK2   BANK3   BANK4   BANK5   BANK6   BANK7
  3006 ;;      Params:         8       0       0       0       0       0       0       0       0
  3007 ;;      Locals:        13       0       0       0       0       0       0       0       0
  3008 ;;      Temps:          4       0       0       0       0       0       0       0       0
  3009 ;;      Totals:        25       0       0       0       0       0       0       0       0
  3010 ;;Total ram usage:       25 bytes
  3011 ;; Hardware stack levels used: 1
  3012 ;; Hardware stack levels required when called: 2
  3013 ;; This function calls:
  3014 ;;		Nothing
  3015 ;; This function is called by:
  3016 ;;		_pwm1_ini
  3017 ;; This function uses a non-reentrant model
  3018 ;;
  3019                           
  3020                           	psect	text14
  3021   000CB8                     __ptext14:
  3022                           	callstack 0
  3023   000CB8                     ___flmul:
  3024                           	callstack 26
  3025   000CB8  5025               	movf	(___flmul@b+3)^0,w,c
  3026   000CBA  0B80               	andlw	128
  3027   000CBC  6E2E               	movwf	___flmul@sign^0,c
  3028   000CBE  5025               	movf	(___flmul@b+3)^0,w,c
  3029   000CC0  2425               	addwf	(___flmul@b+3)^0,w,c
  3030   000CC2  6E34               	movwf	___flmul@bexp^0,c
  3031   000CC4  AE24               	btfss	(___flmul@b+2)^0,7,c
  3032   000CC6  EF67  F006         	goto	u1931
  3033   000CCA  EF69  F006         	goto	u1930
  3034   000CCE                     u1931:
  3035   000CCE  EF6A  F006         	goto	l2351
  3036   000CD2                     u1930:
  3037   000CD2  8034               	bsf	___flmul@bexp^0,0,c
  3038   000CD4                     l2351:
  3039   000CD4  5034               	movf	___flmul@bexp^0,w,c
  3040   000CD6  B4D8               	btfsc	status,2,c
  3041   000CD8  EF70  F006         	goto	u1941
  3042   000CDC  EF72  F006         	goto	u1940
  3043   000CE0                     u1941:
  3044   000CE0  EF85  F006         	goto	l2359
  3045   000CE4                     u1940:
  3046   000CE4  2834               	incf	___flmul@bexp^0,w,c
  3047   000CE6  A4D8               	btfss	status,2,c
  3048   000CE8  EF78  F006         	goto	u1951
  3049   000CEC  EF7A  F006         	goto	u1950
  3050   000CF0                     u1951:
  3051   000CF0  EF82  F006         	goto	l2357
  3052   000CF4                     u1950:
  3053   000CF4  0E00               	movlw	0
  3054   000CF6  6E22               	movwf	___flmul@b^0,c
  3055   000CF8  0E00               	movlw	0
  3056   000CFA  6E23               	movwf	(___flmul@b+1)^0,c
  3057   000CFC  0E00               	movlw	0
  3058   000CFE  6E24               	movwf	(___flmul@b+2)^0,c
  3059   000D00  0E00               	movlw	0
  3060   000D02  6E25               	movwf	(___flmul@b+3)^0,c
  3061   000D04                     l2357:
  3062   000D04  8E24               	bsf	(___flmul@b+2)^0,7,c
  3063   000D06  EF8D  F006         	goto	l2361
  3064   000D0A                     l2359:
  3065   000D0A  0E00               	movlw	0
  3066   000D0C  6E22               	movwf	___flmul@b^0,c
  3067   000D0E  0E00               	movlw	0
  3068   000D10  6E23               	movwf	(___flmul@b+1)^0,c
  3069   000D12  0E00               	movlw	0
  3070   000D14  6E24               	movwf	(___flmul@b+2)^0,c
  3071   000D16  0E00               	movlw	0
  3072   000D18  6E25               	movwf	(___flmul@b+3)^0,c
  3073   000D1A                     l2361:
  3074   000D1A  5029               	movf	(___flmul@a+3)^0,w,c
  3075   000D1C  0B80               	andlw	128
  3076   000D1E  1A2E               	xorwf	___flmul@sign^0,f,c
  3077   000D20  5029               	movf	(___flmul@a+3)^0,w,c
  3078   000D22  2429               	addwf	(___flmul@a+3)^0,w,c
  3079   000D24  6E33               	movwf	___flmul@aexp^0,c
  3080   000D26  AE28               	btfss	(___flmul@a+2)^0,7,c
  3081   000D28  EF98  F006         	goto	u1961
  3082   000D2C  EF9A  F006         	goto	u1960
  3083   000D30                     u1961:
  3084   000D30  EF9B  F006         	goto	l2369
  3085   000D34                     u1960:
  3086   000D34  8033               	bsf	___flmul@aexp^0,0,c
  3087   000D36                     l2369:
  3088   000D36  5033               	movf	___flmul@aexp^0,w,c
  3089   000D38  B4D8               	btfsc	status,2,c
  3090   000D3A  EFA1  F006         	goto	u1971
  3091   000D3E  EFA3  F006         	goto	u1970
  3092   000D42                     u1971:
  3093   000D42  EFB6  F006         	goto	l2377
  3094   000D46                     u1970:
  3095   000D46  2833               	incf	___flmul@aexp^0,w,c
  3096   000D48  A4D8               	btfss	status,2,c
  3097   000D4A  EFA9  F006         	goto	u1981
  3098   000D4E  EFAB  F006         	goto	u1980
  3099   000D52                     u1981:
  3100   000D52  EFB3  F006         	goto	l2375
  3101   000D56                     u1980:
  3102   000D56  0E00               	movlw	0
  3103   000D58  6E26               	movwf	___flmul@a^0,c
  3104   000D5A  0E00               	movlw	0
  3105   000D5C  6E27               	movwf	(___flmul@a+1)^0,c
  3106   000D5E  0E00               	movlw	0
  3107   000D60  6E28               	movwf	(___flmul@a+2)^0,c
  3108   000D62  0E00               	movlw	0
  3109   000D64  6E29               	movwf	(___flmul@a+3)^0,c
  3110   000D66                     l2375:
  3111   000D66  8E28               	bsf	(___flmul@a+2)^0,7,c
  3112   000D68  EFBE  F006         	goto	l826
  3113   000D6C                     l2377:
  3114   000D6C  0E00               	movlw	0
  3115   000D6E  6E26               	movwf	___flmul@a^0,c
  3116   000D70  0E00               	movlw	0
  3117   000D72  6E27               	movwf	(___flmul@a+1)^0,c
  3118   000D74  0E00               	movlw	0
  3119   000D76  6E28               	movwf	(___flmul@a+2)^0,c
  3120   000D78  0E00               	movlw	0
  3121   000D7A  6E29               	movwf	(___flmul@a+3)^0,c
  3122   000D7C                     l826:
  3123   000D7C  5033               	movf	___flmul@aexp^0,w,c
  3124   000D7E  B4D8               	btfsc	status,2,c
  3125   000D80  EFC4  F006         	goto	u1991
  3126   000D84  EFC6  F006         	goto	u1990
  3127   000D88                     u1991:
  3128   000D88  EFCE  F006         	goto	l2381
  3129   000D8C                     u1990:
  3130   000D8C  5034               	movf	___flmul@bexp^0,w,c
  3131   000D8E  A4D8               	btfss	status,2,c
  3132   000D90  EFCC  F006         	goto	u2001
  3133   000D94  EFCE  F006         	goto	u2000
  3134   000D98                     u2001:
  3135   000D98  EFD8  F006         	goto	l2385
  3136   000D9C                     u2000:
  3137   000D9C                     l2381:
  3138   000D9C  0E00               	movlw	0
  3139   000D9E  6E22               	movwf	?___flmul^0,c
  3140   000DA0  0E00               	movlw	0
  3141   000DA2  6E23               	movwf	(?___flmul+1)^0,c
  3142   000DA4  0E00               	movlw	0
  3143   000DA6  6E24               	movwf	(?___flmul+2)^0,c
  3144   000DA8  0E00               	movlw	0
  3145   000DAA  6E25               	movwf	(?___flmul+3)^0,c
  3146   000DAC  EF6E  F008         	goto	l830
  3147   000DB0                     l2385:
  3148   000DB0  5028               	movf	(___flmul@a+2)^0,w,c
  3149   000DB2  0222               	mulwf	___flmul@b^0,c
  3150   000DB4  CFF3 F039          	movff	prodl,___flmul@temp
  3151   000DB8  CFF4 F03A          	movff	prodh,___flmul@temp+1
  3152   000DBC  5039               	movf	___flmul@temp^0,w,c
  3153   000DBE  6E2F               	movwf	___flmul@grs^0,c
  3154   000DC0  6A30               	clrf	(___flmul@grs+1)^0,c
  3155   000DC2  6A31               	clrf	(___flmul@grs+2)^0,c
  3156   000DC4  6A32               	clrf	(___flmul@grs+3)^0,c
  3157   000DC6  503A               	movf	(___flmul@temp+1)^0,w,c
  3158   000DC8  6E35               	movwf	___flmul@prod^0,c
  3159   000DCA  6A36               	clrf	(___flmul@prod+1)^0,c
  3160   000DCC  6A37               	clrf	(___flmul@prod+2)^0,c
  3161   000DCE  6A38               	clrf	(___flmul@prod+3)^0,c
  3162   000DD0  5027               	movf	(___flmul@a+1)^0,w,c
  3163   000DD2  0223               	mulwf	(___flmul@b+1)^0,c
  3164   000DD4  CFF3 F039          	movff	prodl,___flmul@temp
  3165   000DD8  CFF4 F03A          	movff	prodh,___flmul@temp+1
  3166   000DDC  5039               	movf	___flmul@temp^0,w,c
  3167   000DDE  262F               	addwf	___flmul@grs^0,f,c
  3168   000DE0  0E00               	movlw	0
  3169   000DE2  2230               	addwfc	(___flmul@grs+1)^0,f,c
  3170   000DE4  2231               	addwfc	(___flmul@grs+2)^0,f,c
  3171   000DE6  2232               	addwfc	(___flmul@grs+3)^0,f,c
  3172   000DE8  503A               	movf	(___flmul@temp+1)^0,w,c
  3173   000DEA  2635               	addwf	___flmul@prod^0,f,c
  3174   000DEC  0E00               	movlw	0
  3175   000DEE  2236               	addwfc	(___flmul@prod+1)^0,f,c
  3176   000DF0  2237               	addwfc	(___flmul@prod+2)^0,f,c
  3177   000DF2  2238               	addwfc	(___flmul@prod+3)^0,f,c
  3178   000DF4  5026               	movf	___flmul@a^0,w,c
  3179   000DF6  0224               	mulwf	(___flmul@b+2)^0,c
  3180   000DF8  CFF3 F039          	movff	prodl,___flmul@temp
  3181   000DFC  CFF4 F03A          	movff	prodh,___flmul@temp+1
  3182   000E00  5039               	movf	___flmul@temp^0,w,c
  3183   000E02  262F               	addwf	___flmul@grs^0,f,c
  3184   000E04  0E00               	movlw	0
  3185   000E06  2230               	addwfc	(___flmul@grs+1)^0,f,c
  3186   000E08  2231               	addwfc	(___flmul@grs+2)^0,f,c
  3187   000E0A  2232               	addwfc	(___flmul@grs+3)^0,f,c
  3188   000E0C  503A               	movf	(___flmul@temp+1)^0,w,c
  3189   000E0E  2635               	addwf	___flmul@prod^0,f,c
  3190   000E10  0E00               	movlw	0
  3191   000E12  2236               	addwfc	(___flmul@prod+1)^0,f,c
  3192   000E14  2237               	addwfc	(___flmul@prod+2)^0,f,c
  3193   000E16  2238               	addwfc	(___flmul@prod+3)^0,f,c
  3194   000E18  C031  F032         	movff	___flmul@grs+2,___flmul@grs+3
  3195   000E1C  C030  F031         	movff	___flmul@grs+1,___flmul@grs+2
  3196   000E20  C02F  F030         	movff	___flmul@grs,___flmul@grs+1
  3197   000E24  6A2F               	clrf	___flmul@grs^0,c
  3198   000E26  5026               	movf	___flmul@a^0,w,c
  3199   000E28  0223               	mulwf	(___flmul@b+1)^0,c
  3200   000E2A  CFF3 F039          	movff	prodl,___flmul@temp
  3201   000E2E  CFF4 F03A          	movff	prodh,___flmul@temp+1
  3202   000E32  5039               	movf	___flmul@temp^0,w,c
  3203   000E34  262F               	addwf	___flmul@grs^0,f,c
  3204   000E36  503A               	movf	(___flmul@temp+1)^0,w,c
  3205   000E38  2230               	addwfc	(___flmul@grs+1)^0,f,c
  3206   000E3A  0E00               	movlw	0
  3207   000E3C  2231               	addwfc	(___flmul@grs+2)^0,f,c
  3208   000E3E  0E00               	movlw	0
  3209   000E40  2232               	addwfc	(___flmul@grs+3)^0,f,c
  3210   000E42  5027               	movf	(___flmul@a+1)^0,w,c
  3211   000E44  0222               	mulwf	___flmul@b^0,c
  3212   000E46  CFF3 F039          	movff	prodl,___flmul@temp
  3213   000E4A  CFF4 F03A          	movff	prodh,___flmul@temp+1
  3214   000E4E  5039               	movf	___flmul@temp^0,w,c
  3215   000E50  262F               	addwf	___flmul@grs^0,f,c
  3216   000E52  503A               	movf	(___flmul@temp+1)^0,w,c
  3217   000E54  2230               	addwfc	(___flmul@grs+1)^0,f,c
  3218   000E56  0E00               	movlw	0
  3219   000E58  2231               	addwfc	(___flmul@grs+2)^0,f,c
  3220   000E5A  0E00               	movlw	0
  3221   000E5C  2232               	addwfc	(___flmul@grs+3)^0,f,c
  3222   000E5E  C031  F032         	movff	___flmul@grs+2,___flmul@grs+3
  3223   000E62  C030  F031         	movff	___flmul@grs+1,___flmul@grs+2
  3224   000E66  C02F  F030         	movff	___flmul@grs,___flmul@grs+1
  3225   000E6A  6A2F               	clrf	___flmul@grs^0,c
  3226   000E6C  5026               	movf	___flmul@a^0,w,c
  3227   000E6E  0222               	mulwf	___flmul@b^0,c
  3228   000E70  CFF3 F039          	movff	prodl,___flmul@temp
  3229   000E74  CFF4 F03A          	movff	prodh,___flmul@temp+1
  3230   000E78  5039               	movf	___flmul@temp^0,w,c
  3231   000E7A  262F               	addwf	___flmul@grs^0,f,c
  3232   000E7C  503A               	movf	(___flmul@temp+1)^0,w,c
  3233   000E7E  2230               	addwfc	(___flmul@grs+1)^0,f,c
  3234   000E80  0E00               	movlw	0
  3235   000E82  2231               	addwfc	(___flmul@grs+2)^0,f,c
  3236   000E84  0E00               	movlw	0
  3237   000E86  2232               	addwfc	(___flmul@grs+3)^0,f,c
  3238   000E88  5028               	movf	(___flmul@a+2)^0,w,c
  3239   000E8A  0223               	mulwf	(___flmul@b+1)^0,c
  3240   000E8C  CFF3 F039          	movff	prodl,___flmul@temp
  3241   000E90  CFF4 F03A          	movff	prodh,___flmul@temp+1
  3242   000E94  5039               	movf	___flmul@temp^0,w,c
  3243   000E96  2635               	addwf	___flmul@prod^0,f,c
  3244   000E98  503A               	movf	(___flmul@temp+1)^0,w,c
  3245   000E9A  2236               	addwfc	(___flmul@prod+1)^0,f,c
  3246   000E9C  0E00               	movlw	0
  3247   000E9E  2237               	addwfc	(___flmul@prod+2)^0,f,c
  3248   000EA0  0E00               	movlw	0
  3249   000EA2  2238               	addwfc	(___flmul@prod+3)^0,f,c
  3250   000EA4  5027               	movf	(___flmul@a+1)^0,w,c
  3251   000EA6  0224               	mulwf	(___flmul@b+2)^0,c
  3252   000EA8  CFF3 F039          	movff	prodl,___flmul@temp
  3253   000EAC  CFF4 F03A          	movff	prodh,___flmul@temp+1
  3254   000EB0  5039               	movf	___flmul@temp^0,w,c
  3255   000EB2  2635               	addwf	___flmul@prod^0,f,c
  3256   000EB4  503A               	movf	(___flmul@temp+1)^0,w,c
  3257   000EB6  2236               	addwfc	(___flmul@prod+1)^0,f,c
  3258   000EB8  0E00               	movlw	0
  3259   000EBA  2237               	addwfc	(___flmul@prod+2)^0,f,c
  3260   000EBC  0E00               	movlw	0
  3261   000EBE  2238               	addwfc	(___flmul@prod+3)^0,f,c
  3262   000EC0  5028               	movf	(___flmul@a+2)^0,w,c
  3263   000EC2  0224               	mulwf	(___flmul@b+2)^0,c
  3264   000EC4  CFF3 F039          	movff	prodl,___flmul@temp
  3265   000EC8  CFF4 F03A          	movff	prodh,___flmul@temp+1
  3266   000ECC  5039               	movf	___flmul@temp^0,w,c
  3267   000ECE  6E2A               	movwf	??___flmul^0,c
  3268   000ED0  503A               	movf	(___flmul@temp+1)^0,w,c
  3269   000ED2  6E2B               	movwf	(??___flmul+1)^0,c
  3270   000ED4  6A2C               	clrf	(??___flmul+2)^0,c
  3271   000ED6  6A2D               	clrf	(??___flmul+3)^0,c
  3272   000ED8  C02C  F02D         	movff	??___flmul+2,??___flmul+3
  3273   000EDC  C02B  F02C         	movff	??___flmul+1,??___flmul+2
  3274   000EE0  C02A  F02B         	movff	??___flmul,??___flmul+1
  3275   000EE4  6A2A               	clrf	??___flmul^0,c
  3276   000EE6  502A               	movf	??___flmul^0,w,c
  3277   000EE8  2635               	addwf	___flmul@prod^0,f,c
  3278   000EEA  502B               	movf	(??___flmul+1)^0,w,c
  3279   000EEC  2236               	addwfc	(___flmul@prod+1)^0,f,c
  3280   000EEE  502C               	movf	(??___flmul+2)^0,w,c
  3281   000EF0  2237               	addwfc	(___flmul@prod+2)^0,f,c
  3282   000EF2  502D               	movf	(??___flmul+3)^0,w,c
  3283   000EF4  2238               	addwfc	(___flmul@prod+3)^0,f,c
  3284   000EF6  C02F  F02A         	movff	___flmul@grs,??___flmul
  3285   000EFA  C030  F02B         	movff	___flmul@grs+1,??___flmul+1
  3286   000EFE  C031  F02C         	movff	___flmul@grs+2,??___flmul+2
  3287   000F02  C032  F02D         	movff	___flmul@grs+3,??___flmul+3
  3288   000F06  0E19               	movlw	25
  3289   000F08  EF8B  F007         	goto	u2010
  3290   000F0C                     u2015:
  3291   000F0C  90D8               	bcf	status,0,c
  3292   000F0E  322D               	rrcf	(??___flmul+3)^0,f,c
  3293   000F10  322C               	rrcf	(??___flmul+2)^0,f,c
  3294   000F12  322B               	rrcf	(??___flmul+1)^0,f,c
  3295   000F14  322A               	rrcf	??___flmul^0,f,c
  3296   000F16                     u2010:
  3297   000F16  2EE8               	decfsz	wreg,f,c
  3298   000F18  EF86  F007         	goto	u2015
  3299   000F1C  502A               	movf	??___flmul^0,w,c
  3300   000F1E  2635               	addwf	___flmul@prod^0,f,c
  3301   000F20  502B               	movf	(??___flmul+1)^0,w,c
  3302   000F22  2236               	addwfc	(___flmul@prod+1)^0,f,c
  3303   000F24  502C               	movf	(??___flmul+2)^0,w,c
  3304   000F26  2237               	addwfc	(___flmul@prod+2)^0,f,c
  3305   000F28  502D               	movf	(??___flmul+3)^0,w,c
  3306   000F2A  2238               	addwfc	(___flmul@prod+3)^0,f,c
  3307   000F2C  C031  F032         	movff	___flmul@grs+2,___flmul@grs+3
  3308   000F30  C030  F031         	movff	___flmul@grs+1,___flmul@grs+2
  3309   000F34  C02F  F030         	movff	___flmul@grs,___flmul@grs+1
  3310   000F38  6A2F               	clrf	___flmul@grs^0,c
  3311   000F3A  5033               	movf	___flmul@aexp^0,w,c
  3312   000F3C  C034  F02A         	movff	___flmul@bexp,??___flmul
  3313   000F40  6A2B               	clrf	(??___flmul+1)^0,c
  3314   000F42  262A               	addwf	??___flmul^0,f,c
  3315   000F44  0E00               	movlw	0
  3316   000F46  222B               	addwfc	(??___flmul+1)^0,f,c
  3317   000F48  0E82               	movlw	130
  3318   000F4A  242A               	addwf	??___flmul^0,w,c
  3319   000F4C  6E39               	movwf	___flmul@temp^0,c
  3320   000F4E  0EFF               	movlw	255
  3321   000F50  202B               	addwfc	(??___flmul+1)^0,w,c
  3322   000F52  6E3A               	movwf	(___flmul@temp+1)^0,c
  3323   000F54  EFC1  F007         	goto	l2433
  3324   000F58                     l2427:
  3325   000F58  90D8               	bcf	status,0,c
  3326   000F5A  3635               	rlcf	___flmul@prod^0,f,c
  3327   000F5C  3636               	rlcf	(___flmul@prod+1)^0,f,c
  3328   000F5E  3637               	rlcf	(___flmul@prod+2)^0,f,c
  3329   000F60  3638               	rlcf	(___flmul@prod+3)^0,f,c
  3330   000F62  AE32               	btfss	(___flmul@grs+3)^0,7,c
  3331   000F64  EFB6  F007         	goto	u2021
  3332   000F68  EFB8  F007         	goto	u2020
  3333   000F6C                     u2021:
  3334   000F6C  EFB9  F007         	goto	l833
  3335   000F70                     u2020:
  3336   000F70  8035               	bsf	___flmul@prod^0,0,c
  3337   000F72                     l833:
  3338   000F72  90D8               	bcf	status,0,c
  3339   000F74  362F               	rlcf	___flmul@grs^0,f,c
  3340   000F76  3630               	rlcf	(___flmul@grs+1)^0,f,c
  3341   000F78  3631               	rlcf	(___flmul@grs+2)^0,f,c
  3342   000F7A  3632               	rlcf	(___flmul@grs+3)^0,f,c
  3343   000F7C  0639               	decf	___flmul@temp^0,f,c
  3344   000F7E  A0D8               	btfss	status,0,c
  3345   000F80  063A               	decf	(___flmul@temp+1)^0,f,c
  3346   000F82                     l2433:
  3347   000F82  AE37               	btfss	(___flmul@prod+2)^0,7,c
  3348   000F84  EFC6  F007         	goto	u2031
  3349   000F88  EFC8  F007         	goto	u2030
  3350   000F8C                     u2031:
  3351   000F8C  EFAC  F007         	goto	l2427
  3352   000F90                     u2030:
  3353   000F90  6A33               	clrf	___flmul@aexp^0,c
  3354   000F92  AE32               	btfss	(___flmul@grs+3)^0,7,c
  3355   000F94  EFCE  F007         	goto	u2041
  3356   000F98  EFD0  F007         	goto	u2040
  3357   000F9C                     u2041:
  3358   000F9C  EFF4  F007         	goto	l835
  3359   000FA0                     u2040:
  3360   000FA0  0EFF               	movlw	255
  3361   000FA2  142F               	andwf	___flmul@grs^0,w,c
  3362   000FA4  6E2A               	movwf	??___flmul^0,c
  3363   000FA6  0EFF               	movlw	255
  3364   000FA8  1430               	andwf	(___flmul@grs+1)^0,w,c
  3365   000FAA  6E2B               	movwf	(??___flmul+1)^0,c
  3366   000FAC  0EFF               	movlw	255
  3367   000FAE  1431               	andwf	(___flmul@grs+2)^0,w,c
  3368   000FB0  6E2C               	movwf	(??___flmul+2)^0,c
  3369   000FB2  0E7F               	movlw	127
  3370   000FB4  1432               	andwf	(___flmul@grs+3)^0,w,c
  3371   000FB6  6E2D               	movwf	(??___flmul+3)^0,c
  3372   000FB8  502A               	movf	??___flmul^0,w,c
  3373   000FBA  102B               	iorwf	(??___flmul+1)^0,w,c
  3374   000FBC  102C               	iorwf	(??___flmul+2)^0,w,c
  3375   000FBE  102D               	iorwf	(??___flmul+3)^0,w,c
  3376   000FC0  B4D8               	btfsc	status,2,c
  3377   000FC2  EFE5  F007         	goto	u2051
  3378   000FC6  EFE7  F007         	goto	u2050
  3379   000FCA                     u2051:
  3380   000FCA  EFEB  F007         	goto	l836
  3381   000FCE                     u2050:
  3382   000FCE                     l2437:
  3383   000FCE  0E01               	movlw	1
  3384   000FD0  6E33               	movwf	___flmul@aexp^0,c
  3385   000FD2  EFF4  F007         	goto	l835
  3386   000FD6                     l836:
  3387   000FD6  A035               	btfss	___flmul@prod^0,0,c
  3388   000FD8  EFF0  F007         	goto	u2061
  3389   000FDC  EFF2  F007         	goto	u2060
  3390   000FE0                     u2061:
  3391   000FE0  EFF4  F007         	goto	l835
  3392   000FE4                     u2060:
  3393   000FE4  EFE7  F007         	goto	l2437
  3394   000FE8                     l835:
  3395   000FE8  5033               	movf	___flmul@aexp^0,w,c
  3396   000FEA  B4D8               	btfsc	status,2,c
  3397   000FEC  EFFA  F007         	goto	u2071
  3398   000FF0  EFFC  F007         	goto	u2070
  3399   000FF4                     u2071:
  3400   000FF4  EF20  F008         	goto	l2449
  3401   000FF8                     u2070:
  3402   000FF8  0E01               	movlw	1
  3403   000FFA  2635               	addwf	___flmul@prod^0,f,c
  3404   000FFC  0E00               	movlw	0
  3405   000FFE  2236               	addwfc	(___flmul@prod+1)^0,f,c
  3406   001000  2237               	addwfc	(___flmul@prod+2)^0,f,c
  3407   001002  2238               	addwfc	(___flmul@prod+3)^0,f,c
  3408   001004  A038               	btfss	(___flmul@prod+3)^0,0,c
  3409   001006  EF07  F008         	goto	u2081
  3410   00100A  EF09  F008         	goto	u2080
  3411   00100E                     u2081:
  3412   00100E  EF20  F008         	goto	l2449
  3413   001012                     u2080:
  3414   001012  C035  F02A         	movff	___flmul@prod,??___flmul
  3415   001016  C036  F02B         	movff	___flmul@prod+1,??___flmul+1
  3416   00101A  C037  F02C         	movff	___flmul@prod+2,??___flmul+2
  3417   00101E  C038  F02D         	movff	___flmul@prod+3,??___flmul+3
  3418   001022  342D               	rlcf	(??___flmul+3)^0,w,c
  3419   001024  322D               	rrcf	(??___flmul+3)^0,f,c
  3420   001026  322C               	rrcf	(??___flmul+2)^0,f,c
  3421   001028  322B               	rrcf	(??___flmul+1)^0,f,c
  3422   00102A  322A               	rrcf	??___flmul^0,f,c
  3423   00102C  C02A  F035         	movff	??___flmul,___flmul@prod
  3424   001030  C02B  F036         	movff	??___flmul+1,___flmul@prod+1
  3425   001034  C02C  F037         	movff	??___flmul+2,___flmul@prod+2
  3426   001038  C02D  F038         	movff	??___flmul+3,___flmul@prod+3
  3427   00103C  4A39               	infsnz	___flmul@temp^0,f,c
  3428   00103E  2A3A               	incf	(___flmul@temp+1)^0,f,c
  3429   001040                     l2449:
  3430   001040  BE3A               	btfsc	(___flmul@temp+1)^0,7,c
  3431   001042  EF2B  F008         	goto	u2091
  3432   001046  503A               	movf	(___flmul@temp+1)^0,w,c
  3433   001048  E108               	bnz	u2090
  3434   00104A  2839               	incf	___flmul@temp^0,w,c
  3435   00104C  A0D8               	btfss	status,0,c
  3436   00104E  EF2B  F008         	goto	u2091
  3437   001052  EF2D  F008         	goto	u2090
  3438   001056                     u2091:
  3439   001056  EF37  F008         	goto	l2453
  3440   00105A                     u2090:
  3441   00105A  0E00               	movlw	0
  3442   00105C  6E35               	movwf	___flmul@prod^0,c
  3443   00105E  0E00               	movlw	0
  3444   001060  6E36               	movwf	(___flmul@prod+1)^0,c
  3445   001062  0E80               	movlw	128
  3446   001064  6E37               	movwf	(___flmul@prod+2)^0,c
  3447   001066  0E7F               	movlw	127
  3448   001068  6E38               	movwf	(___flmul@prod+3)^0,c
  3449   00106A  EF64  F008         	goto	l2467
  3450   00106E                     l2453:
  3451   00106E  BE3A               	btfsc	(___flmul@temp+1)^0,7,c
  3452   001070  EF44  F008         	goto	u2100
  3453   001074  503A               	movf	(___flmul@temp+1)^0,w,c
  3454   001076  E106               	bnz	u2101
  3455   001078  0439               	decf	___flmul@temp^0,w,c
  3456   00107A  B0D8               	btfsc	status,0,c
  3457   00107C  EF42  F008         	goto	u2101
  3458   001080  EF44  F008         	goto	u2100
  3459   001084                     u2101:
  3460   001084  EF4F  F008         	goto	l843
  3461   001088                     u2100:
  3462   001088  0E00               	movlw	0
  3463   00108A  6E35               	movwf	___flmul@prod^0,c
  3464   00108C  0E00               	movlw	0
  3465   00108E  6E36               	movwf	(___flmul@prod+1)^0,c
  3466   001090  0E00               	movlw	0
  3467   001092  6E37               	movwf	(___flmul@prod+2)^0,c
  3468   001094  0E00               	movlw	0
  3469   001096  6E38               	movwf	(___flmul@prod+3)^0,c
  3470   001098  6A2E               	clrf	___flmul@sign^0,c
  3471   00109A  EF64  F008         	goto	l2467
  3472   00109E                     l843:
  3473   00109E  C039  F034         	movff	___flmul@temp,___flmul@bexp
  3474   0010A2  0EFF               	movlw	255
  3475   0010A4  1635               	andwf	___flmul@prod^0,f,c
  3476   0010A6  0EFF               	movlw	255
  3477   0010A8  1636               	andwf	(___flmul@prod+1)^0,f,c
  3478   0010AA  0E7F               	movlw	127
  3479   0010AC  1637               	andwf	(___flmul@prod+2)^0,f,c
  3480   0010AE  0E00               	movlw	0
  3481   0010B0  1638               	andwf	(___flmul@prod+3)^0,f,c
  3482   0010B2  A034               	btfss	___flmul@bexp^0,0,c
  3483   0010B4  EF5E  F008         	goto	u2111
  3484   0010B8  EF60  F008         	goto	u2110
  3485   0010BC                     u2111:
  3486   0010BC  EF61  F008         	goto	l2465
  3487   0010C0                     u2110:
  3488   0010C0  8E37               	bsf	(___flmul@prod+2)^0,7,c
  3489   0010C2                     l2465:
  3490   0010C2  90D8               	bcf	status,0,c
  3491   0010C4  3034               	rrcf	___flmul@bexp^0,w,c
  3492   0010C6  6E38               	movwf	(___flmul@prod+3)^0,c
  3493   0010C8                     l2467:
  3494   0010C8  502E               	movf	___flmul@sign^0,w,c
  3495   0010CA  1238               	iorwf	(___flmul@prod+3)^0,f,c
  3496   0010CC  C035  F022         	movff	___flmul@prod,?___flmul
  3497   0010D0  C036  F023         	movff	___flmul@prod+1,?___flmul+1
  3498   0010D4  C037  F024         	movff	___flmul@prod+2,?___flmul+2
  3499   0010D8  C038  F025         	movff	___flmul@prod+3,?___flmul+3
  3500   0010DC                     l830:
  3501   0010DC  0012               	return		;funcret
  3502   0010DE                     __end_of___flmul:
  3503                           	callstack 0
  3504                           
  3505 ;; *************** function _lcd_ini *****************
  3506 ;; Defined at:
  3507 ;;		line 95 in file "lcd.c"
  3508 ;; Parameters:    Size  Location     Type
  3509 ;;		None
  3510 ;; Auto vars:     Size  Location     Type
  3511 ;;		None
  3512 ;; Return value:  Size  Location     Type
  3513 ;;                  1    wreg      void 
  3514 ;; Registers used:
  3515 ;;		wreg, status,2, status,0, cstack
  3516 ;; Tracked objects:
  3517 ;;		On entry : 0/0
  3518 ;;		On exit  : 0/0
  3519 ;;		Unchanged: 0/0
  3520 ;; Data sizes:     COMRAM   BANK0   BANK1   BANK2   BANK3   BANK4   BANK5   BANK6   BANK7
  3521 ;;      Params:         0       0       0       0       0       0       0       0       0
  3522 ;;      Locals:         0       0       0       0       0       0       0       0       0
  3523 ;;      Temps:          0       0       0       0       0       0       0       0       0
  3524 ;;      Totals:         0       0       0       0       0       0       0       0       0
  3525 ;;Total ram usage:        0 bytes
  3526 ;; Hardware stack levels used: 1
  3527 ;; Hardware stack levels required when called: 5
  3528 ;; This function calls:
  3529 ;;		_lcd_com
  3530 ;;		_ms_time
  3531 ;;		_us_time
  3532 ;; This function is called by:
  3533 ;;		_pic_ini
  3534 ;; This function uses a non-reentrant model
  3535 ;;
  3536                           
  3537                           	psect	text15
  3538   001A8A                     __ptext15:
  3539                           	callstack 0
  3540   001A8A                     _lcd_ini:
  3541                           	callstack 24
  3542   001A8A                     
  3543                           ;lcd.c: 97: ms_time(10);
  3544   001A8A  0E00               	movlw	0
  3545   001A8C  6E0C               	movwf	(ms_time@ms+1)^0,c
  3546   001A8E  0E0A               	movlw	10
  3547   001A90  6E0B               	movwf	ms_time@ms^0,c
  3548   001A92  ECE7  F00C         	call	_ms_time	;wreg free
  3549   001A96                     
  3550                           ;lcd.c: 98: TRISD = 0x00;
  3551   001A96  6A95               	clrf	149,c	;volatile
  3552   001A98                     
  3553                           ;lcd.c: 99: PORTD = 0x80;
  3554   001A98  0E80               	movlw	128
  3555   001A9A  6E83               	movwf	131,c	;volatile
  3556   001A9C                     
  3557                           ;lcd.c: 102: lcd_com(0x30);
  3558   001A9C  0E30               	movlw	48
  3559   001A9E  EC64  F00B         	call	_lcd_com
  3560   001AA2                     
  3561                           ;lcd.c: 103: ms_time(50);
  3562   001AA2  0E00               	movlw	0
  3563   001AA4  6E0C               	movwf	(ms_time@ms+1)^0,c
  3564   001AA6  0E32               	movlw	50
  3565   001AA8  6E0B               	movwf	ms_time@ms^0,c
  3566   001AAA  ECE7  F00C         	call	_ms_time	;wreg free
  3567   001AAE                     
  3568                           ;lcd.c: 105: lcd_com(0x30);
  3569   001AAE  0E30               	movlw	48
  3570   001AB0  EC64  F00B         	call	_lcd_com
  3571   001AB4                     
  3572                           ;lcd.c: 106: us_time(300);
  3573   001AB4  0E01               	movlw	1
  3574   001AB6  6E0C               	movwf	(us_time@us+1)^0,c
  3575   001AB8  0E2C               	movlw	44
  3576   001ABA  6E0B               	movwf	us_time@us^0,c
  3577   001ABC  EC16  F00D         	call	_us_time	;wreg free
  3578   001AC0                     
  3579                           ;lcd.c: 108: lcd_com(0x30);
  3580   001AC0  0E30               	movlw	48
  3581   001AC2  EC64  F00B         	call	_lcd_com
  3582   001AC6                     
  3583                           ;lcd.c: 110: lcd_com(0x32);
  3584   001AC6  0E32               	movlw	50
  3585   001AC8  EC64  F00B         	call	_lcd_com
  3586   001ACC                     
  3587                           ;lcd.c: 112: lcd_com(0x2C);
  3588   001ACC  0E2C               	movlw	44
  3589   001ACE  EC64  F00B         	call	_lcd_com
  3590   001AD2                     
  3591                           ;lcd.c: 114: lcd_com(0x06);
  3592   001AD2  0E06               	movlw	6
  3593   001AD4  EC64  F00B         	call	_lcd_com
  3594   001AD8                     
  3595                           ;lcd.c: 116: lcd_com(0x0F);
  3596   001AD8  0E0F               	movlw	15
  3597   001ADA  EC64  F00B         	call	_lcd_com
  3598   001ADE                     
  3599                           ;lcd.c: 118: lcd_com(0x01);
  3600   001ADE  0E01               	movlw	1
  3601   001AE0  EC64  F00B         	call	_lcd_com
  3602   001AE4  0012               	return		;funcret
  3603   001AE6                     __end_of_lcd_ini:
  3604                           	callstack 0
  3605                           
  3606 ;; *************** function _ms_time *****************
  3607 ;; Defined at:
  3608 ;;		line 257 in file "lcd.c"
  3609 ;; Parameters:    Size  Location     Type
  3610 ;;  ms              2   10[COMRAM] unsigned int 
  3611 ;; Auto vars:     Size  Location     Type
  3612 ;;  sms             2   14[COMRAM] unsigned int 
  3613 ;;  tms             2   12[COMRAM] unsigned int 
  3614 ;; Return value:  Size  Location     Type
  3615 ;;                  1    wreg      void 
  3616 ;; Registers used:
  3617 ;;		wreg, status,2, status,0, cstack
  3618 ;; Tracked objects:
  3619 ;;		On entry : 0/0
  3620 ;;		On exit  : 0/0
  3621 ;;		Unchanged: 0/0
  3622 ;; Data sizes:     COMRAM   BANK0   BANK1   BANK2   BANK3   BANK4   BANK5   BANK6   BANK7
  3623 ;;      Params:         2       0       0       0       0       0       0       0       0
  3624 ;;      Locals:         4       0       0       0       0       0       0       0       0
  3625 ;;      Temps:          0       0       0       0       0       0       0       0       0
  3626 ;;      Totals:         6       0       0       0       0       0       0       0       0
  3627 ;;Total ram usage:        6 bytes
  3628 ;; Hardware stack levels used: 1
  3629 ;; Hardware stack levels required when called: 3
  3630 ;; This function calls:
  3631 ;;		___lwdiv
  3632 ;; This function is called by:
  3633 ;;		_lcd_ini
  3634 ;; This function uses a non-reentrant model
  3635 ;;
  3636                           
  3637                           	psect	text16
  3638   0019CE                     __ptext16:
  3639                           	callstack 0
  3640   0019CE                     _ms_time:
  3641                           	callstack 25
  3642   0019CE                     
  3643                           ;lcd.c: 260: for(uint16_t tms=0; tms < ms/10; tms++)
  3644   0019CE  0E00               	movlw	0
  3645   0019D0  6E0E               	movwf	(ms_time@tms+1)^0,c
  3646   0019D2  0E00               	movlw	0
  3647   0019D4  6E0D               	movwf	ms_time@tms^0,c
  3648   0019D6  EF00  F00D         	goto	l2343
  3649   0019DA                     l2331:
  3650                           
  3651                           ;lcd.c: 261: {;lcd.c: 262: for(uint16_t sms=0; sms < ((8000000/4)/1000); sms++);
  3652   0019DA  0E00               	movlw	0
  3653   0019DC  6E10               	movwf	(ms_time@sms+1)^0,c
  3654   0019DE  0E00               	movlw	0
  3655   0019E0  6E0F               	movwf	ms_time@sms^0,c
  3656   0019E2                     l2337:
  3657   0019E2  4A0F               	infsnz	ms_time@sms^0,f,c
  3658   0019E4  2A10               	incf	(ms_time@sms+1)^0,f,c
  3659   0019E6  0ED0               	movlw	208
  3660   0019E8  5C0F               	subwf	ms_time@sms^0,w,c
  3661   0019EA  0E07               	movlw	7
  3662   0019EC  5810               	subwfb	(ms_time@sms+1)^0,w,c
  3663   0019EE  A0D8               	btfss	status,0,c
  3664   0019F0  EFFC  F00C         	goto	u1911
  3665   0019F4  EFFE  F00C         	goto	u1910
  3666   0019F8                     u1911:
  3667   0019F8  EFF1  F00C         	goto	l2337
  3668   0019FC                     u1910:
  3669   0019FC  4A0D               	infsnz	ms_time@tms^0,f,c
  3670   0019FE  2A0E               	incf	(ms_time@tms+1)^0,f,c
  3671   001A00                     l2343:
  3672   001A00  C00B  F004         	movff	ms_time@ms,___lwdiv@dividend
  3673   001A04  C00C  F005         	movff	ms_time@ms+1,___lwdiv@dividend+1
  3674   001A08  0E00               	movlw	0
  3675   001A0A  6E07               	movwf	(___lwdiv@divisor+1)^0,c
  3676   001A0C  0E0A               	movlw	10
  3677   001A0E  6E06               	movwf	___lwdiv@divisor^0,c
  3678   001A10  ECAD  F00C         	call	___lwdiv	;wreg free
  3679   001A14  5004               	movf	?___lwdiv^0,w,c
  3680   001A16  5C0D               	subwf	ms_time@tms^0,w,c
  3681   001A18  5005               	movf	(?___lwdiv+1)^0,w,c
  3682   001A1A  580E               	subwfb	(ms_time@tms+1)^0,w,c
  3683   001A1C  A0D8               	btfss	status,0,c
  3684   001A1E  EF13  F00D         	goto	u1921
  3685   001A22  EF15  F00D         	goto	u1920
  3686   001A26                     u1921:
  3687   001A26  EFED  F00C         	goto	l2331
  3688   001A2A                     u1920:
  3689   001A2A  0012               	return		;funcret
  3690   001A2C                     __end_of_ms_time:
  3691                           	callstack 0
  3692                           
  3693 ;; *************** function _lcd_com *****************
  3694 ;; Defined at:
  3695 ;;		line 52 in file "lcd.c"
  3696 ;; Parameters:    Size  Location     Type
  3697 ;;  cmd             1    wreg     unsigned char 
  3698 ;; Auto vars:     Size  Location     Type
  3699 ;;  cmd             1   16[COMRAM] unsigned char 
  3700 ;; Return value:  Size  Location     Type
  3701 ;;                  1    wreg      void 
  3702 ;; Registers used:
  3703 ;;		wreg, status,2, status,0, cstack
  3704 ;; Tracked objects:
  3705 ;;		On entry : 0/0
  3706 ;;		On exit  : 0/0
  3707 ;;		Unchanged: 0/0
  3708 ;; Data sizes:     COMRAM   BANK0   BANK1   BANK2   BANK3   BANK4   BANK5   BANK6   BANK7
  3709 ;;      Params:         0       0       0       0       0       0       0       0       0
  3710 ;;      Locals:         1       0       0       0       0       0       0       0       0
  3711 ;;      Temps:          0       0       0       0       0       0       0       0       0
  3712 ;;      Totals:         1       0       0       0       0       0       0       0       0
  3713 ;;Total ram usage:        1 bytes
  3714 ;; Hardware stack levels used: 1
  3715 ;; Hardware stack levels required when called: 4
  3716 ;; This function calls:
  3717 ;;		_us_time
  3718 ;; This function is called by:
  3719 ;;		_pic_ini
  3720 ;;		_lcd_ini
  3721 ;;		_lcd_prtStr
  3722 ;; This function uses a non-reentrant model
  3723 ;;
  3724                           
  3725                           	psect	text17
  3726   0016C8                     __ptext17:
  3727                           	callstack 0
  3728   0016C8                     _lcd_com:
  3729                           	callstack 24
  3730                           
  3731                           ;incstack = 0
  3732                           ;lcd_com@cmd stored from wreg
  3733   0016C8  6E11               	movwf	lcd_com@cmd^0,c
  3734   0016CA                     
  3735                           ;lcd.c: 54: PORTD = 0xF0;
  3736   0016CA  0EF0               	movlw	240
  3737   0016CC  6E83               	movwf	131,c	;volatile
  3738   0016CE                     
  3739                           ;lcd.c: 55: us_time(10);
  3740   0016CE  0E00               	movlw	0
  3741   0016D0  6E0C               	movwf	(us_time@us+1)^0,c
  3742   0016D2  0E0A               	movlw	10
  3743   0016D4  6E0B               	movwf	us_time@us^0,c
  3744   0016D6  EC16  F00D         	call	_us_time	;wreg free
  3745   0016DA                     
  3746                           ;lcd.c: 57: PORTD = (uint8_t)(PORTD & (cmd & 0xF0));
  3747   0016DA  5011               	movf	lcd_com@cmd^0,w,c
  3748   0016DC  1483               	andwf	131,w,c	;volatile
  3749   0016DE  0BF0               	andlw	240
  3750   0016E0  6E83               	movwf	131,c	;volatile
  3751   0016E2                     
  3752                           ;lcd.c: 58: us_time(10);
  3753   0016E2  0E00               	movlw	0
  3754   0016E4  6E0C               	movwf	(us_time@us+1)^0,c
  3755   0016E6  0E0A               	movlw	10
  3756   0016E8  6E0B               	movwf	us_time@us^0,c
  3757   0016EA  EC16  F00D         	call	_us_time	;wreg free
  3758   0016EE                     
  3759                           ;lcd.c: 60: PORTDbits.RD2 = 0;
  3760   0016EE  9483               	bcf	131,2,c	;volatile
  3761   0016F0                     
  3762                           ;lcd.c: 61: PORTDbits.RD1 = 0;
  3763   0016F0  9283               	bcf	131,1,c	;volatile
  3764   0016F2                     
  3765                           ;lcd.c: 62: PORTDbits.RD0 = 1;
  3766   0016F2  8083               	bsf	131,0,c	;volatile
  3767   0016F4                     
  3768                           ;lcd.c: 63: us_time(10);
  3769   0016F4  0E00               	movlw	0
  3770   0016F6  6E0C               	movwf	(us_time@us+1)^0,c
  3771   0016F8  0E0A               	movlw	10
  3772   0016FA  6E0B               	movwf	us_time@us^0,c
  3773   0016FC  EC16  F00D         	call	_us_time	;wreg free
  3774   001700                     
  3775                           ;lcd.c: 65: PORTDbits.RD0 = 0;
  3776   001700  9083               	bcf	131,0,c	;volatile
  3777   001702                     
  3778                           ;lcd.c: 66: us_time(10);
  3779   001702  0E00               	movlw	0
  3780   001704  6E0C               	movwf	(us_time@us+1)^0,c
  3781   001706  0E0A               	movlw	10
  3782   001708  6E0B               	movwf	us_time@us^0,c
  3783   00170A  EC16  F00D         	call	_us_time	;wreg free
  3784   00170E                     
  3785                           ;lcd.c: 68: PORTD = 0xF0;
  3786   00170E  0EF0               	movlw	240
  3787   001710  6E83               	movwf	131,c	;volatile
  3788   001712                     
  3789                           ;lcd.c: 69: PORTD = (uint8_t)(PORTD & ((cmd << 4) & 0xF0));
  3790   001712  3811               	swapf	lcd_com@cmd^0,w,c
  3791   001714  0BF0               	andlw	240
  3792   001716  1483               	andwf	131,w,c	;volatile
  3793   001718  0BF0               	andlw	240
  3794   00171A  6E83               	movwf	131,c	;volatile
  3795   00171C                     
  3796                           ;lcd.c: 71: PORTDbits.RD2 = 0;
  3797   00171C  9483               	bcf	131,2,c	;volatile
  3798   00171E                     
  3799                           ;lcd.c: 72: PORTDbits.RD1 = 0;
  3800   00171E  9283               	bcf	131,1,c	;volatile
  3801   001720                     
  3802                           ;lcd.c: 73: PORTDbits.RD0 = 1;
  3803   001720  8083               	bsf	131,0,c	;volatile
  3804   001722                     
  3805                           ;lcd.c: 74: us_time(10);
  3806   001722  0E00               	movlw	0
  3807   001724  6E0C               	movwf	(us_time@us+1)^0,c
  3808   001726  0E0A               	movlw	10
  3809   001728  6E0B               	movwf	us_time@us^0,c
  3810   00172A  EC16  F00D         	call	_us_time	;wreg free
  3811   00172E                     
  3812                           ;lcd.c: 76: PORTDbits.RD0 = 0;
  3813   00172E  9083               	bcf	131,0,c	;volatile
  3814   001730                     
  3815                           ;lcd.c: 77: us_time(10);
  3816   001730  0E00               	movlw	0
  3817   001732  6E0C               	movwf	(us_time@us+1)^0,c
  3818   001734  0E0A               	movlw	10
  3819   001736  6E0B               	movwf	us_time@us^0,c
  3820   001738  EC16  F00D         	call	_us_time	;wreg free
  3821   00173C                     
  3822                           ;lcd.c: 79: if(cmd == 0x01) us_time(100);
  3823   00173C  0411               	decf	lcd_com@cmd^0,w,c
  3824   00173E  A4D8               	btfss	status,2,c
  3825   001740  EFA4  F00B         	goto	u1891
  3826   001744  EFA6  F00B         	goto	u1890
  3827   001748                     u1891:
  3828   001748  EFAC  F00B         	goto	l2317
  3829   00174C                     u1890:
  3830   00174C  0E00               	movlw	0
  3831   00174E  6E0C               	movwf	(us_time@us+1)^0,c
  3832   001750  0E64               	movlw	100
  3833   001752  6E0B               	movwf	us_time@us^0,c
  3834   001754  EC16  F00D         	call	_us_time	;wreg free
  3835   001758                     l2317:
  3836                           
  3837                           ;lcd.c: 80: if(cmd == 0x00) us_time(100);
  3838   001758  5011               	movf	lcd_com@cmd^0,w,c
  3839   00175A  A4D8               	btfss	status,2,c
  3840   00175C  EFB2  F00B         	goto	u1901
  3841   001760  EFB4  F00B         	goto	u1900
  3842   001764                     u1901:
  3843   001764  EFBA  F00B         	goto	l180
  3844   001768                     u1900:
  3845   001768  0E00               	movlw	0
  3846   00176A  6E0C               	movwf	(us_time@us+1)^0,c
  3847   00176C  0E64               	movlw	100
  3848   00176E  6E0B               	movwf	us_time@us^0,c
  3849   001770  EC16  F00D         	call	_us_time	;wreg free
  3850   001774                     l180:
  3851   001774  0012               	return		;funcret
  3852   001776                     __end_of_lcd_com:
  3853                           	callstack 0
  3854                           
  3855 ;; *************** function _us_time *****************
  3856 ;; Defined at:
  3857 ;;		line 274 in file "lcd.c"
  3858 ;; Parameters:    Size  Location     Type
  3859 ;;  us              2   10[COMRAM] unsigned int 
  3860 ;; Auto vars:     Size  Location     Type
  3861 ;;  sus             2   14[COMRAM] unsigned int 
  3862 ;;  tus             2   12[COMRAM] unsigned int 
  3863 ;; Return value:  Size  Location     Type
  3864 ;;                  1    wreg      void 
  3865 ;; Registers used:
  3866 ;;		wreg, status,2, status,0, cstack
  3867 ;; Tracked objects:
  3868 ;;		On entry : 0/0
  3869 ;;		On exit  : 0/0
  3870 ;;		Unchanged: 0/0
  3871 ;; Data sizes:     COMRAM   BANK0   BANK1   BANK2   BANK3   BANK4   BANK5   BANK6   BANK7
  3872 ;;      Params:         2       0       0       0       0       0       0       0       0
  3873 ;;      Locals:         4       0       0       0       0       0       0       0       0
  3874 ;;      Temps:          0       0       0       0       0       0       0       0       0
  3875 ;;      Totals:         6       0       0       0       0       0       0       0       0
  3876 ;;Total ram usage:        6 bytes
  3877 ;; Hardware stack levels used: 1
  3878 ;; Hardware stack levels required when called: 3
  3879 ;; This function calls:
  3880 ;;		___lwdiv
  3881 ;; This function is called by:
  3882 ;;		_lcd_com
  3883 ;;		_lcd_ini
  3884 ;;		_lcd_prtChar
  3885 ;;		_lcd_prtStr
  3886 ;; This function uses a non-reentrant model
  3887 ;;
  3888                           
  3889                           	psect	text18
  3890   001A2C                     __ptext18:
  3891                           	callstack 0
  3892   001A2C                     _us_time:
  3893                           	callstack 25
  3894   001A2C                     
  3895                           ;lcd.c: 276: for(uint16_t tus=0; tus < us/10; tus++)
  3896   001A2C  0E00               	movlw	0
  3897   001A2E  6E0E               	movwf	(us_time@tus+1)^0,c
  3898   001A30  0E00               	movlw	0
  3899   001A32  6E0D               	movwf	us_time@tus^0,c
  3900   001A34  EF2F  F00D         	goto	l2247
  3901   001A38                     l2235:
  3902                           
  3903                           ;lcd.c: 277: {;lcd.c: 278: for(uint16_t sus=0; sus < (8000000>>2)/1000000; sus++);
  3904   001A38  0E00               	movlw	0
  3905   001A3A  6E10               	movwf	(us_time@sus+1)^0,c
  3906   001A3C  0E00               	movlw	0
  3907   001A3E  6E0F               	movwf	us_time@sus^0,c
  3908   001A40                     l2241:
  3909   001A40  4A0F               	infsnz	us_time@sus^0,f,c
  3910   001A42  2A10               	incf	(us_time@sus+1)^0,f,c
  3911   001A44  5010               	movf	(us_time@sus+1)^0,w,c
  3912   001A46  E109               	bnz	u1850
  3913   001A48  0E02               	movlw	2
  3914   001A4A  5C0F               	subwf	us_time@sus^0,w,c
  3915   001A4C  A0D8               	btfss	status,0,c
  3916   001A4E  EF2B  F00D         	goto	u1851
  3917   001A52  EF2D  F00D         	goto	u1850
  3918   001A56                     u1851:
  3919   001A56  EF20  F00D         	goto	l2241
  3920   001A5A                     u1850:
  3921   001A5A  4A0D               	infsnz	us_time@tus^0,f,c
  3922   001A5C  2A0E               	incf	(us_time@tus+1)^0,f,c
  3923   001A5E                     l2247:
  3924   001A5E  C00B  F004         	movff	us_time@us,___lwdiv@dividend
  3925   001A62  C00C  F005         	movff	us_time@us+1,___lwdiv@dividend+1
  3926   001A66  0E00               	movlw	0
  3927   001A68  6E07               	movwf	(___lwdiv@divisor+1)^0,c
  3928   001A6A  0E0A               	movlw	10
  3929   001A6C  6E06               	movwf	___lwdiv@divisor^0,c
  3930   001A6E  ECAD  F00C         	call	___lwdiv	;wreg free
  3931   001A72  5004               	movf	?___lwdiv^0,w,c
  3932   001A74  5C0D               	subwf	us_time@tus^0,w,c
  3933   001A76  5005               	movf	(?___lwdiv+1)^0,w,c
  3934   001A78  580E               	subwfb	(us_time@tus+1)^0,w,c
  3935   001A7A  A0D8               	btfss	status,0,c
  3936   001A7C  EF42  F00D         	goto	u1861
  3937   001A80  EF44  F00D         	goto	u1860
  3938   001A84                     u1861:
  3939   001A84  EF1C  F00D         	goto	l2235
  3940   001A88                     u1860:
  3941   001A88  0012               	return		;funcret
  3942   001A8A                     __end_of_us_time:
  3943                           	callstack 0
  3944                           
  3945 ;; *************** function ___lwdiv *****************
  3946 ;; Defined at:
  3947 ;;		line 7 in file "C:\Program Files\Microchip\xc8\v2.50\pic\sources\c90\common\lwdiv.c"
  3948 ;; Parameters:    Size  Location     Type
  3949 ;;  dividend        2    3[COMRAM] unsigned int 
  3950 ;;  divisor         2    5[COMRAM] unsigned int 
  3951 ;; Auto vars:     Size  Location     Type
  3952 ;;  quotient        2    7[COMRAM] unsigned int 
  3953 ;;  counter         1    9[COMRAM] unsigned char 
  3954 ;; Return value:  Size  Location     Type
  3955 ;;                  2    3[COMRAM] unsigned int 
  3956 ;; Registers used:
  3957 ;;		wreg, status,2, status,0
  3958 ;; Tracked objects:
  3959 ;;		On entry : 0/0
  3960 ;;		On exit  : 0/0
  3961 ;;		Unchanged: 0/0
  3962 ;; Data sizes:     COMRAM   BANK0   BANK1   BANK2   BANK3   BANK4   BANK5   BANK6   BANK7
  3963 ;;      Params:         4       0       0       0       0       0       0       0       0
  3964 ;;      Locals:         3       0       0       0       0       0       0       0       0
  3965 ;;      Temps:          0       0       0       0       0       0       0       0       0
  3966 ;;      Totals:         7       0       0       0       0       0       0       0       0
  3967 ;;Total ram usage:        7 bytes
  3968 ;; Hardware stack levels used: 1
  3969 ;; Hardware stack levels required when called: 2
  3970 ;; This function calls:
  3971 ;;		Nothing
  3972 ;; This function is called by:
  3973 ;;		_ms_time
  3974 ;;		_us_time
  3975 ;;		_digit_counter
  3976 ;; This function uses a non-reentrant model
  3977 ;;
  3978                           
  3979                           	psect	text19
  3980   00195A                     __ptext19:
  3981                           	callstack 0
  3982   00195A                     ___lwdiv:
  3983                           	callstack 25
  3984   00195A  0E00               	movlw	0
  3985   00195C  6E09               	movwf	(___lwdiv@quotient+1)^0,c
  3986   00195E  0E00               	movlw	0
  3987   001960  6E08               	movwf	___lwdiv@quotient^0,c
  3988   001962  5006               	movf	___lwdiv@divisor^0,w,c
  3989   001964  1007               	iorwf	(___lwdiv@divisor+1)^0,w,c
  3990   001966  B4D8               	btfsc	status,2,c
  3991   001968  EFB8  F00C         	goto	u1701
  3992   00196C  EFBA  F00C         	goto	u1700
  3993   001970                     u1701:
  3994   001970  EFE2  F00C         	goto	l703
  3995   001974                     u1700:
  3996   001974  0E01               	movlw	1
  3997   001976  6E0A               	movwf	___lwdiv@counter^0,c
  3998   001978  EFC2  F00C         	goto	l2157
  3999   00197C                     l2155:
  4000   00197C  90D8               	bcf	status,0,c
  4001   00197E  3606               	rlcf	___lwdiv@divisor^0,f,c
  4002   001980  3607               	rlcf	(___lwdiv@divisor+1)^0,f,c
  4003   001982  2A0A               	incf	___lwdiv@counter^0,f,c
  4004   001984                     l2157:
  4005   001984  AE07               	btfss	(___lwdiv@divisor+1)^0,7,c
  4006   001986  EFC7  F00C         	goto	u1711
  4007   00198A  EFC9  F00C         	goto	u1710
  4008   00198E                     u1711:
  4009   00198E  EFBE  F00C         	goto	l2155
  4010   001992                     u1710:
  4011   001992                     l2159:
  4012   001992  90D8               	bcf	status,0,c
  4013   001994  3608               	rlcf	___lwdiv@quotient^0,f,c
  4014   001996  3609               	rlcf	(___lwdiv@quotient+1)^0,f,c
  4015   001998  5006               	movf	___lwdiv@divisor^0,w,c
  4016   00199A  5C04               	subwf	___lwdiv@dividend^0,w,c
  4017   00199C  5007               	movf	(___lwdiv@divisor+1)^0,w,c
  4018   00199E  5805               	subwfb	(___lwdiv@dividend+1)^0,w,c
  4019   0019A0  A0D8               	btfss	status,0,c
  4020   0019A2  EFD5  F00C         	goto	u1721
  4021   0019A6  EFD7  F00C         	goto	u1720
  4022   0019AA                     u1721:
  4023   0019AA  EFDC  F00C         	goto	l2167
  4024   0019AE                     u1720:
  4025   0019AE  5006               	movf	___lwdiv@divisor^0,w,c
  4026   0019B0  5E04               	subwf	___lwdiv@dividend^0,f,c
  4027   0019B2  5007               	movf	(___lwdiv@divisor+1)^0,w,c
  4028   0019B4  5A05               	subwfb	(___lwdiv@dividend+1)^0,f,c
  4029   0019B6  8008               	bsf	___lwdiv@quotient^0,0,c
  4030   0019B8                     l2167:
  4031   0019B8  90D8               	bcf	status,0,c
  4032   0019BA  3207               	rrcf	(___lwdiv@divisor+1)^0,f,c
  4033   0019BC  3206               	rrcf	___lwdiv@divisor^0,f,c
  4034   0019BE  2E0A               	decfsz	___lwdiv@counter^0,f,c
  4035   0019C0  EFC9  F00C         	goto	l2159
  4036   0019C4                     l703:
  4037   0019C4  C008  F004         	movff	___lwdiv@quotient,?___lwdiv
  4038   0019C8  C009  F005         	movff	___lwdiv@quotient+1,?___lwdiv+1
  4039   0019CC  0012               	return		;funcret
  4040   0019CE                     __end_of___lwdiv:
  4041                           	callstack 0
  4042                           
  4043 ;; *************** function _adc_ini *****************
  4044 ;; Defined at:
  4045 ;;		line 68 in file "hardware.c"
  4046 ;; Parameters:    Size  Location     Type
  4047 ;;		None
  4048 ;; Auto vars:     Size  Location     Type
  4049 ;;		None
  4050 ;; Return value:  Size  Location     Type
  4051 ;;                  1    wreg      void 
  4052 ;; Registers used:
  4053 ;;		wreg, status,2
  4054 ;; Tracked objects:
  4055 ;;		On entry : 0/0
  4056 ;;		On exit  : 0/0
  4057 ;;		Unchanged: 0/0
  4058 ;; Data sizes:     COMRAM   BANK0   BANK1   BANK2   BANK3   BANK4   BANK5   BANK6   BANK7
  4059 ;;      Params:         0       0       0       0       0       0       0       0       0
  4060 ;;      Locals:         0       0       0       0       0       0       0       0       0
  4061 ;;      Temps:          0       0       0       0       0       0       0       0       0
  4062 ;;      Totals:         0       0       0       0       0       0       0       0       0
  4063 ;;Total ram usage:        0 bytes
  4064 ;; Hardware stack levels used: 1
  4065 ;; Hardware stack levels required when called: 2
  4066 ;; This function calls:
  4067 ;;		Nothing
  4068 ;; This function is called by:
  4069 ;;		_pic_ini
  4070 ;; This function uses a non-reentrant model
  4071 ;;
  4072                           
  4073                           	psect	text20
  4074   001B90                     __ptext20:
  4075                           	callstack 0
  4076   001B90                     _adc_ini:
  4077                           	callstack 27
  4078   001B90                     
  4079                           ;hardware.c: 71: TRISA = 0x0F;
  4080   001B90  0E0F               	movlw	15
  4081   001B92  6E92               	movwf	146,c	;volatile
  4082                           
  4083                           ;hardware.c: 72: ADCON1 = 0x0B;
  4084   001B94  0E0B               	movlw	11
  4085   001B96  6EC1               	movwf	193,c	;volatile
  4086                           
  4087                           ;hardware.c: 73: ADCON2 = 0xBE;
  4088   001B98  0EBE               	movlw	190
  4089   001B9A  6EC0               	movwf	192,c	;volatile
  4090   001B9C                     
  4091                           ;hardware.c: 74: ADCON0bits.ADON = 1;
  4092   001B9C  80C2               	bsf	194,0,c	;volatile
  4093   001B9E                     
  4094                           ;hardware.c: 75: ADRESH=0;
  4095   001B9E  6AC4               	clrf	196,c	;volatile
  4096   001BA0                     
  4097                           ;hardware.c: 76: ADRESL=0;
  4098   001BA0  6AC3               	clrf	195,c	;volatile
  4099   001BA2  0012               	return		;funcret
  4100   001BA4                     __end_of_adc_ini:
  4101                           	callstack 0
  4102                           
  4103 ;; *************** function _ISR *****************
  4104 ;; Defined at:
  4105 ;;		line 22 in file "main.c"
  4106 ;; Parameters:    Size  Location     Type
  4107 ;;		None
  4108 ;; Auto vars:     Size  Location     Type
  4109 ;;		None
  4110 ;; Return value:  Size  Location     Type
  4111 ;;                  1    wreg      void 
  4112 ;; Registers used:
  4113 ;;		wreg, status,2, status,0, cstack
  4114 ;; Tracked objects:
  4115 ;;		On entry : 0/0
  4116 ;;		On exit  : 0/0
  4117 ;;		Unchanged: 0/0
  4118 ;; Data sizes:     COMRAM   BANK0   BANK1   BANK2   BANK3   BANK4   BANK5   BANK6   BANK7
  4119 ;;      Params:         0       0       0       0       0       0       0       0       0
  4120 ;;      Locals:         0       0       0       0       0       0       0       0       0
  4121 ;;      Temps:          1       0       0       0       0       0       0       0       0
  4122 ;;      Totals:         1       0       0       0       0       0       0       0       0
  4123 ;;Total ram usage:        1 bytes
  4124 ;; Hardware stack levels used: 1
  4125 ;; Hardware stack levels required when called: 1
  4126 ;; This function calls:
  4127 ;;		i2_timer0_write
  4128 ;; This function is called by:
  4129 ;;		Interrupt level 2
  4130 ;; This function uses a non-reentrant model
  4131 ;;
  4132                           
  4133                           	psect	intcode
  4134   000008                     __pintcode:
  4135                           	callstack 0
  4136   000008                     _ISR:
  4137                           	callstack 23
  4138                           
  4139                           ;incstack = 0
  4140   000008  825B               	bsf	int$flags,1,c	;set compiler interrupt flag (level 2)
  4141   00000A  EDEB  F009         	call	int_func,f	;refresh shadow registers
  4142                           
  4143                           	psect	intcode_body
  4144   0013D6                     __pintcode_body:
  4145                           	callstack 23
  4146   0013D6                     int_func:
  4147                           	callstack 23
  4148   0013D6  0006               	pop		; remove dummy address from shadow register refresh
  4149   0013D8                     
  4150                           ;main.c: 24: if(INTCONbits.TMR0IF)
  4151   0013D8  A4F2               	btfss	242,2,c	;volatile
  4152   0013DA  EFF1  F009         	goto	i2u216_41
  4153   0013DE  EFF3  F009         	goto	i2u216_40
  4154   0013E2                     i2u216_41:
  4155   0013E2  EF0C  F00A         	goto	i2l2625
  4156   0013E6                     i2u216_40:
  4157   0013E6                     
  4158                           ;main.c: 25: {;main.c: 26: INTCONbits.TMR0IF = 0;
  4159   0013E6  94F2               	bcf	242,2,c	;volatile
  4160   0013E8                     
  4161                           ;main.c: 27: timer0_write(0xFE0C);
  4162   0013E8  0EFE               	movlw	254
  4163   0013EA  6E02               	movwf	(i2timer0_write@timer_value+1)^0,c
  4164   0013EC  0E0C               	movlw	12
  4165   0013EE  6E01               	movwf	i2timer0_write@timer_value^0,c
  4166   0013F0  ECE5  F00D         	call	i2_timer0_write	;wreg free
  4167   0013F4                     
  4168                           ;main.c: 28: LATBbits.LATB7 = ~LATBbits.LATB7;
  4169   0013F4  BE8A               	btfsc	138,7,c	;volatile
  4170   0013F6  EFFF  F009         	goto	i2u217_41
  4171   0013FA  EF02  F00A         	goto	i2u217_40
  4172   0013FE                     i2u217_41:
  4173   0013FE  0E01               	movlw	1
  4174   001400  EF03  F00A         	goto	i2u217_46
  4175   001404                     i2u217_40:
  4176   001404  0E00               	movlw	0
  4177   001406                     i2u217_46:
  4178   001406  0AFF               	xorlw	255
  4179   001408  6E03               	movwf	??_ISR^0,c
  4180   00140A  3203               	rrcf	??_ISR^0,f,c
  4181   00140C  3203               	rrcf	??_ISR^0,f,c
  4182   00140E  508A               	movf	138,w,c	;volatile
  4183   001410  1803               	xorwf	??_ISR^0,w,c
  4184   001412  0B7F               	andlw	-129
  4185   001414  1803               	xorwf	??_ISR^0,w,c
  4186   001416  6E8A               	movwf	138,c	;volatile
  4187   001418                     i2l2625:
  4188                           
  4189                           ;main.c: 29: };main.c: 31: if(PIR1bits.TMR2IF)
  4190   001418  A29E               	btfss	158,1,c	;volatile
  4191   00141A  EF11  F00A         	goto	i2u218_41
  4192   00141E  EF13  F00A         	goto	i2u218_40
  4193   001422                     i2u218_41:
  4194   001422  EF87  F00A         	goto	i2l40
  4195   001426                     i2u218_40:
  4196   001426                     
  4197                           ;main.c: 32: {;main.c: 33: rpm_ckp++;
  4198   001426  2A59               	incf	_rpm_ckp^0,f,c
  4199                           
  4200                           ;main.c: 34: rpm_cmp++;
  4201   001428  2A58               	incf	_rpm_cmp^0,f,c
  4202   00142A                     
  4203                           ;main.c: 35: PIR1bits.TMR2IF = 0;
  4204   00142A  929E               	bcf	158,1,c	;volatile
  4205   00142C                     
  4206                           ;main.c: 36: if(rpm_ckp == 59)
  4207   00142C  0E3B               	movlw	59
  4208   00142E  1859               	xorwf	_rpm_ckp^0,w,c
  4209   001430  A4D8               	btfss	status,2,c
  4210   001432  EF1D  F00A         	goto	i2u219_41
  4211   001436  EF1F  F00A         	goto	i2u219_40
  4212   00143A                     i2u219_41:
  4213   00143A  EF22  F00A         	goto	i2l2639
  4214   00143E                     i2u219_40:
  4215   00143E                     
  4216                           ;main.c: 37: {;main.c: 38: LATBbits.LATB0 = 0;
  4217   00143E  908A               	bcf	138,0,c	;volatile
  4218   001440                     
  4219                           ;main.c: 39: turn_ctrl++;
  4220   001440  2A57               	incf	_turn_ctrl^0,f,c
  4221   001442                     
  4222                           ;main.c: 41: LATCbits.LATC2 = 0;
  4223   001442  948B               	bcf	139,2,c	;volatile
  4224   001444                     i2l2639:
  4225                           
  4226                           ;main.c: 42: };main.c: 43: if(rpm_ckp == 60)
  4227   001444  0E3C               	movlw	60
  4228   001446  1859               	xorwf	_rpm_ckp^0,w,c
  4229   001448  A4D8               	btfss	status,2,c
  4230   00144A  EF29  F00A         	goto	i2u220_41
  4231   00144E  EF2B  F00A         	goto	i2u220_40
  4232   001452                     i2u220_41:
  4233   001452  EF38  F00A         	goto	i2l2647
  4234   001456                     i2u220_40:
  4235   001456                     
  4236                           ;main.c: 44: {;main.c: 45: rpm_ckp = 0;
  4237   001456  6A59               	clrf	_rpm_ckp^0,c
  4238                           
  4239                           ;main.c: 46: LATBbits.LATB0 = 1;
  4240   001458  808A               	bsf	138,0,c	;volatile
  4241   00145A                     
  4242                           ;main.c: 47: if(turn_ctrl == 2) {
  4243   00145A  0E02               	movlw	2
  4244   00145C  1857               	xorwf	_turn_ctrl^0,w,c
  4245   00145E  A4D8               	btfss	status,2,c
  4246   001460  EF34  F00A         	goto	i2u221_41
  4247   001464  EF36  F00A         	goto	i2u221_40
  4248   001468                     i2u221_41:
  4249   001468  EF38  F00A         	goto	i2l2647
  4250   00146C                     i2u221_40:
  4251   00146C                     
  4252                           ;main.c: 48: rpm_cmp = -1;
  4253   00146C  6858               	setf	_rpm_cmp^0,c
  4254                           
  4255                           ;main.c: 49: turn_ctrl = 0;
  4256   00146E  6A57               	clrf	_turn_ctrl^0,c
  4257   001470                     i2l2647:
  4258                           
  4259                           ;main.c: 50: };main.c: 52: };main.c: 54: if(rpm_cmp == 0) LATBbits.LATB4 = 1;
  4260   001470  5058               	movf	_rpm_cmp^0,w,c
  4261   001472  A4D8               	btfss	status,2,c
  4262   001474  EF3E  F00A         	goto	i2u222_41
  4263   001478  EF40  F00A         	goto	i2u222_40
  4264   00147C                     i2u222_41:
  4265   00147C  EF41  F00A         	goto	i2l2651
  4266   001480                     i2u222_40:
  4267   001480  888A               	bsf	138,4,c	;volatile
  4268   001482                     i2l2651:
  4269                           
  4270                           ;main.c: 55: if(rpm_cmp == 24) LATBbits.LATB4 = 0;
  4271   001482  0E18               	movlw	24
  4272   001484  1858               	xorwf	_rpm_cmp^0,w,c
  4273   001486  A4D8               	btfss	status,2,c
  4274   001488  EF48  F00A         	goto	i2u223_41
  4275   00148C  EF4A  F00A         	goto	i2u223_40
  4276   001490                     i2u223_41:
  4277   001490  EF4B  F00A         	goto	i2l2655
  4278   001494                     i2u223_40:
  4279   001494  988A               	bcf	138,4,c	;volatile
  4280   001496                     i2l2655:
  4281                           
  4282                           ;main.c: 56: if(rpm_cmp == 46) LATBbits.LATB4 = 1;
  4283   001496  0E2E               	movlw	46
  4284   001498  1858               	xorwf	_rpm_cmp^0,w,c
  4285   00149A  A4D8               	btfss	status,2,c
  4286   00149C  EF52  F00A         	goto	i2u224_41
  4287   0014A0  EF54  F00A         	goto	i2u224_40
  4288   0014A4                     i2u224_41:
  4289   0014A4  EF55  F00A         	goto	i2l2659
  4290   0014A8                     i2u224_40:
  4291   0014A8  888A               	bsf	138,4,c	;volatile
  4292   0014AA                     i2l2659:
  4293                           
  4294                           ;main.c: 57: if(rpm_cmp == 53) LATBbits.LATB4 = 0;
  4295   0014AA  0E35               	movlw	53
  4296   0014AC  1858               	xorwf	_rpm_cmp^0,w,c
  4297   0014AE  A4D8               	btfss	status,2,c
  4298   0014B0  EF5C  F00A         	goto	i2u225_41
  4299   0014B4  EF5E  F00A         	goto	i2u225_40
  4300   0014B8                     i2u225_41:
  4301   0014B8  EF5F  F00A         	goto	i2l2663
  4302   0014BC                     i2u225_40:
  4303   0014BC  988A               	bcf	138,4,c	;volatile
  4304   0014BE                     i2l2663:
  4305                           
  4306                           ;main.c: 58: if(rpm_cmp == 77) LATBbits.LATB4 = 1;
  4307   0014BE  0E4D               	movlw	77
  4308   0014C0  1858               	xorwf	_rpm_cmp^0,w,c
  4309   0014C2  A4D8               	btfss	status,2,c
  4310   0014C4  EF66  F00A         	goto	i2u226_41
  4311   0014C8  EF68  F00A         	goto	i2u226_40
  4312   0014CC                     i2u226_41:
  4313   0014CC  EF69  F00A         	goto	i2l2667
  4314   0014D0                     i2u226_40:
  4315   0014D0  888A               	bsf	138,4,c	;volatile
  4316   0014D2                     i2l2667:
  4317                           
  4318                           ;main.c: 59: if(rpm_cmp == 84) LATBbits.LATB4 = 0;
  4319   0014D2  0E54               	movlw	84
  4320   0014D4  1858               	xorwf	_rpm_cmp^0,w,c
  4321   0014D6  A4D8               	btfss	status,2,c
  4322   0014D8  EF70  F00A         	goto	i2u227_41
  4323   0014DC  EF72  F00A         	goto	i2u227_40
  4324   0014E0                     i2u227_41:
  4325   0014E0  EF73  F00A         	goto	i2l2671
  4326   0014E4                     i2u227_40:
  4327   0014E4  988A               	bcf	138,4,c	;volatile
  4328   0014E6                     i2l2671:
  4329                           
  4330                           ;main.c: 60: if(rpm_cmp == 90) LATBbits.LATB4 = 1;
  4331   0014E6  0E5A               	movlw	90
  4332   0014E8  1858               	xorwf	_rpm_cmp^0,w,c
  4333   0014EA  A4D8               	btfss	status,2,c
  4334   0014EC  EF7A  F00A         	goto	i2u228_41
  4335   0014F0  EF7C  F00A         	goto	i2u228_40
  4336   0014F4                     i2u228_41:
  4337   0014F4  EF7D  F00A         	goto	i2l2675
  4338   0014F8                     i2u228_40:
  4339   0014F8  888A               	bsf	138,4,c	;volatile
  4340   0014FA                     i2l2675:
  4341                           
  4342                           ;main.c: 61: if(rpm_cmp == 113) LATBbits.LATB4 = 0;
  4343   0014FA  0E71               	movlw	113
  4344   0014FC  1858               	xorwf	_rpm_cmp^0,w,c
  4345   0014FE  A4D8               	btfss	status,2,c
  4346   001500  EF84  F00A         	goto	i2u229_41
  4347   001504  EF86  F00A         	goto	i2u229_40
  4348   001508                     i2u229_41:
  4349   001508  EF87  F00A         	goto	i2l40
  4350   00150C                     i2u229_40:
  4351   00150C  988A               	bcf	138,4,c	;volatile
  4352   00150E                     i2l40:
  4353   00150E  925B               	bcf	int$flags,1,c	;clear compiler interrupt flag (level 2)
  4354   001510  0011               	retfie		f
  4355   001512                     __end_of_ISR:
  4356                           	callstack 0
  4357                           
  4358 ;; *************** function i2_timer0_write *****************
  4359 ;; Defined at:
  4360 ;;		line 48 in file "hardware.c"
  4361 ;; Parameters:    Size  Location     Type
  4362 ;;  timer_value     2    0[COMRAM] unsigned int 
  4363 ;; Auto vars:     Size  Location     Type
  4364 ;;		None
  4365 ;; Return value:  Size  Location     Type
  4366 ;;                  1    wreg      void 
  4367 ;; Registers used:
  4368 ;;		wreg, status,2
  4369 ;; Tracked objects:
  4370 ;;		On entry : 0/0
  4371 ;;		On exit  : 0/0
  4372 ;;		Unchanged: 0/0
  4373 ;; Data sizes:     COMRAM   BANK0   BANK1   BANK2   BANK3   BANK4   BANK5   BANK6   BANK7
  4374 ;;      Params:         2       0       0       0       0       0       0       0       0
  4375 ;;      Locals:         0       0       0       0       0       0       0       0       0
  4376 ;;      Temps:          0       0       0       0       0       0       0       0       0
  4377 ;;      Totals:         2       0       0       0       0       0       0       0       0
  4378 ;;Total ram usage:        2 bytes
  4379 ;; Hardware stack levels used: 1
  4380 ;; This function calls:
  4381 ;;		Nothing
  4382 ;; This function is called by:
  4383 ;;		_ISR
  4384 ;; This function uses a non-reentrant model
  4385 ;;
  4386                           
  4387                           	psect	text22
  4388   001BCA                     __ptext22:
  4389                           	callstack 0
  4390   001BCA                     i2_timer0_write:
  4391                           	callstack 23
  4392   001BCA                     
  4393                           ;hardware.c: 50: TMR0L = (timer_value & 0x00FF);
  4394   001BCA  C001  FFD6         	movff	i2timer0_write@timer_value,4054	;volatile
  4395   001BCE                     
  4396                           ;hardware.c: 51: TMR0H = (timer_value >> 8) & 0x00FF;
  4397   001BCE  5002               	movf	(i2timer0_write@timer_value+1)^0,w,c
  4398   001BD0  6ED7               	movwf	215,c	;volatile
  4399   001BD2  0012               	return		;funcret
  4400   001BD4                     __end_ofi2_timer0_write:
  4401                           	callstack 0
  4402                           
  4403                           	psect	smallconst
  4404   000800                     __psmallconst:
  4405                           	callstack 0
  4406   000800  00                 	db	0
  4407   000801  00                 	db	0	; dummy byte at the end
  4408   000000                     __activetblptr  equ	0
  4409                           
  4410                           	psect	rparam
  4411   000001                     ___rparam_used  equ	1
  4412   000000                     ___param_bank   equ	0
  4413   000000                     __Lparam        equ	__Lrparam
  4414   000000                     __Hparam        equ	__Hrparam
  4415                           
  4416                           	psect	temp
  4417   00005B                     btemp:
  4418                           	callstack 0
  4419   00005B                     	ds	1
  4420   00005B                     int$flags       set	btemp
  4421   00005C                     wtemp8          set	btemp+1
  4422   00005C                     ttemp5          set	btemp+1
  4423   00005F                     ttemp6          set	btemp+4
  4424   000063                     ttemp7          set	btemp+8
  4425                           tosu	equ	0xFFF
  4426                           tosh	equ	0xFFE
  4427                           tosl	equ	0xFFD
  4428                           stkptr	equ	0xFFC
  4429                           pclatu	equ	0xFFB
  4430                           pclath	equ	0xFFA
  4431                           pcl	equ	0xFF9
  4432                           tblptru	equ	0xFF8
  4433                           tblptrh	equ	0xFF7
  4434                           tblptrl	equ	0xFF6
  4435                           tablat	equ	0xFF5
  4436                           prodh	equ	0xFF4
  4437                           prodl	equ	0xFF3
  4438                           indf0	equ	0xFEF
  4439                           postinc0	equ	0xFEE
  4440                           postdec0	equ	0xFED
  4441                           preinc0	equ	0xFEC
  4442                           plusw0	equ	0xFEB
  4443                           fsr0h	equ	0xFEA
  4444                           fsr0l	equ	0xFE9
  4445                           wreg	equ	0xFE8
  4446                           indf1	equ	0xFE7
  4447                           postinc1	equ	0xFE6
  4448                           postdec1	equ	0xFE5
  4449                           preinc1	equ	0xFE4
  4450                           plusw1	equ	0xFE3
  4451                           fsr1h	equ	0xFE2
  4452                           fsr1l	equ	0xFE1
  4453                           bsr	equ	0xFE0
  4454                           indf2	equ	0xFDF
  4455                           postinc2	equ	0xFDE
  4456                           postdec2	equ	0xFDD
  4457                           preinc2	equ	0xFDC
  4458                           plusw2	equ	0xFDB
  4459                           fsr2h	equ	0xFDA
  4460                           fsr2l	equ	0xFD9
  4461                           status	equ	0xFD8

Data Sizes:
    Strings     0
    Constant    0
    Data        1
    BSS         5
    Persistent  0
    Stack       0

Auto Spaces:
    Space          Size  Autos    Used
    COMRAM           94     86      90
    BANK0           160     25      27
    BANK1           256      0       0
    BANK2           256      0       0
    BANK3           256      0       0
    BANK4           256      0       0
    BANK5           256      0       0
    BANK6           256      0       0
    BANK7           256      0       0

Pointer List with Targets:

    frexp@eptr	PTR int  size(1) Largest target is 2
		 -> trunc@expon(COMRAM[2]), 

    sp__itoa	PTR unsigned char  size(1) Largest target is 5
		 -> lcd_prtInt@str(COMRAM[5]), 

    sp__utoa	PTR unsigned char  size(1) Largest target is 5
		 -> lcd_prtInt@str(COMRAM[5]), 


Critical Paths under _main in COMRAM

    _timer0_ini->_timer0_write
    _round->___flsub
    _trunc->___fltol
    _frexp->___fleq
    ___fltol->___flmul
    ___flsub->_trunc
    ___fladd->___xxtofl
    ___flmul->___fladd
    _lcd_ini->_lcd_com
    _ms_time->___lwdiv
    _lcd_com->_us_time
    _us_time->___lwdiv

Critical Paths under _ISR in COMRAM

    _ISR->i2_timer0_write

Critical Paths under _main in BANK0

    _pic_ini->_pwm1_ini
    _pwm1_ini->_round

Critical Paths under _ISR in BANK0

    None.

Critical Paths under _main in BANK1

    None.

Critical Paths under _ISR in BANK1

    None.

Critical Paths under _main in BANK2

    None.

Critical Paths under _ISR in BANK2

    None.

Critical Paths under _main in BANK3

    None.

Critical Paths under _ISR in BANK3

    None.

Critical Paths under _main in BANK4

    None.

Critical Paths under _ISR in BANK4

    None.

Critical Paths under _main in BANK5

    None.

Critical Paths under _ISR in BANK5

    None.

Critical Paths under _main in BANK6

    None.

Critical Paths under _ISR in BANK6

    None.

Critical Paths under _main in BANK7

    None.

Critical Paths under _ISR in BANK7

    None.

Call Graph Tables:

 ---------------------------------------------------------------------------------
 (Depth) Function   	        Calls       Base Space   Used Autos Params    Refs
 ---------------------------------------------------------------------------------
 (0) _main                                                 0     0      0   10892
                            _pic_ini
 ---------------------------------------------------------------------------------
 (1) _pic_ini                                              0     0      0   10892
                            _adc_ini
                            _lcd_com
                            _lcd_ini
                           _pwm1_ini
                         _timer0_ini
                         _timer2_ini
 ---------------------------------------------------------------------------------
 (2) _timer2_ini                                           0     0      0       0
 ---------------------------------------------------------------------------------
 (2) _timer0_ini                                           0     0      0      45
                       _timer0_write
 ---------------------------------------------------------------------------------
 (3) _timer0_write                                         2     0      2      45
                                              3 COMRAM     2     0      2
 ---------------------------------------------------------------------------------
 (2) _pwm1_ini                                            17    17      0    9525
                                              8 BANK0     17    17      0
                            ___fladd
                            ___flmul
                            ___fltol
                           ___xxtofl
                              _round
 ---------------------------------------------------------------------------------
 (3) _round                                                8     4      4    5231
                                              0 BANK0      8     4      4
                            ___fladd
                            ___flmul (ARG)
                            ___flsub
                              _trunc
 ---------------------------------------------------------------------------------
 (4) _trunc                                               10     6      4    1037
                                             68 COMRAM    10     6      4
                            ___fltol
                           ___xxtofl
                              _frexp
 ---------------------------------------------------------------------------------
 (5) _frexp                                                7     2      5     302
                                             15 COMRAM     7     2      5
                             ___fleq
 ---------------------------------------------------------------------------------
 (6) ___fleq                                              12     4      8      92
                                              3 COMRAM    12     4      8
 ---------------------------------------------------------------------------------
 (5) ___xxtofl                                            14    10      4     338
                                              3 COMRAM    14    10      4
 ---------------------------------------------------------------------------------
 (5) ___fltol                                             10     6      4     232
                                             58 COMRAM    10     6      4
                            ___fladd (ARG)
                            ___flmul (ARG)
                           ___xxtofl (ARG)
 ---------------------------------------------------------------------------------
 (4) ___flsub                                              8     0      8    2037
                                             78 COMRAM     8     0      8
                            ___fladd
                              _trunc (ARG)
 ---------------------------------------------------------------------------------
 (5) ___fladd                                             16     8      8    1990
                                             17 COMRAM    16     8      8
                           ___xxtofl (ARG)
 ---------------------------------------------------------------------------------
 (3) ___flmul                                             25    17      8    1468
                                             33 COMRAM    25    17      8
                            ___fladd (ARG)
                           ___xxtofl (ARG)
 ---------------------------------------------------------------------------------
 (2) _lcd_ini                                              0     0      0     930
                            _lcd_com
                            _ms_time
                            _us_time
 ---------------------------------------------------------------------------------
 (3) _ms_time                                              6     4      2     262
                                             10 COMRAM     6     4      2
                            ___lwdiv
 ---------------------------------------------------------------------------------
 (3) _lcd_com                                              1     1      0     392
                                             16 COMRAM     1     1      0
                            _us_time
 ---------------------------------------------------------------------------------
 (3) _us_time                                              6     4      2     276
                                             10 COMRAM     6     4      2
                            ___lwdiv
 ---------------------------------------------------------------------------------
 (4) ___lwdiv                                              7     3      4     168
                                              3 COMRAM     7     3      4
 ---------------------------------------------------------------------------------
 (2) _adc_ini                                              0     0      0       0
 ---------------------------------------------------------------------------------
 Estimated maximum stack depth 6
 ---------------------------------------------------------------------------------
 (Depth) Function   	        Calls       Base Space   Used Autos Params    Refs
 ---------------------------------------------------------------------------------
 (7) _ISR                                                  1     1      0      45
                                              2 COMRAM     1     1      0
                     i2_timer0_write
 ---------------------------------------------------------------------------------
 (8) i2_timer0_write                                       2     0      2      45
                                              0 COMRAM     2     0      2
 ---------------------------------------------------------------------------------
 Estimated maximum stack depth 8
 ---------------------------------------------------------------------------------

 Call Graph Graphs:

 _main (ROOT)
   _pic_ini
     _adc_ini
     _lcd_com
       _us_time
         ___lwdiv
     _lcd_ini
       _lcd_com
       _ms_time
         ___lwdiv
       _us_time
     _pwm1_ini
       ___fladd
         ___xxtofl (ARG)
       ___flmul
         ___fladd (ARG)
         ___xxtofl (ARG)
       ___fltol
         ___fladd (ARG)
         ___flmul (ARG)
         ___xxtofl (ARG)
       ___xxtofl
       _round
         ___fladd
         ___flmul (ARG)
         ___flsub (ARG)
           ___fladd
           _trunc (ARG)
             ___fltol
             ___xxtofl
             _frexp
               ___fleq
         _trunc (ARG)
     _timer0_ini
       _timer0_write
     _timer2_ini

 _ISR (ROOT)
   i2_timer0_write

Address spaces:
Name               Size   Autos  Total    Usage
BIGRAM            2047      0       0      0.0%
BITBANK7           256      0       0      0.0%
BANK7              256      0       0      0.0%
BITBANK6           256      0       0      0.0%
BANK6              256      0       0      0.0%
BITBANK5           256      0       0      0.0%
BANK5              256      0       0      0.0%
BITBANK4           256      0       0      0.0%
BANK4              256      0       0      0.0%
BITBANK3           256      0       0      0.0%
BANK3              256      0       0      0.0%
BITBANK2           256      0       0      0.0%
BANK2              256      0       0      0.0%
BITBANK1           256      0       0      0.0%
BANK1              256      0       0      0.0%
BITBANK0           160      0       0      0.0%
BANK0              160     25      27     16.9%
BITCOMRAM           94      0       0      0.0%
COMRAM              94     86      90     95.7%
BITBIGSFRh          66      0       0      0.0%
BITBIGSFRllll       35      0       0      0.0%
BITBIGSFRllh        33      0       0      0.0%
BITBIGSFRlllh       16      0       0      0.0%
BITBIGSFRlh          6      0       0      0.0%
STACK                0      0       0      0.0%
DATA                 0      0     117      0.0%


Microchip Technology PIC18 Macro Assembler V2.50 build 20240725155939 
Symbol Table                                                                                   Sun Dec 15 14:17:04 2024

                      l221 1A88                        l213 1A2A                        l142 1BC8  
                      l136 1B78                        l145 1BBE                        l139 1B8E  
                      l148 1BA2                        l180 1774                        l157 13D4  
                      l183 1AE4                        l513 1616                        l710 19CC  
                      l703 19C4                        l740 09EA                        l741 09D8  
                      l830 10DC                        l742 099E                        l902 18C0  
                      l479 181E                        l833 0F72                        l834 0F90  
                      l826 0D7C                        l754 0B92                        l843 109E  
                      l835 0FE8                        l915 1958                        l836 0FD6  
                      l908 16C6                        l773 0C7A                        l757 0B04  
                      l749 0CB6                        l766 0BD2                        l782 1B2A  
                      l870 1290                        l767 0BC0                        l881 1228  
                      l874 11CC                        l867 1134                        _PR2 0FCB  
                      _ISR 0008                        wreg 0FE8               ___flmul@aexp 0033  
             ___flmul@bexp 0034               ___flmul@sign 002E               ___flmul@temp 0039  
             ___flmul@prod 0035                       ?_ISR 0001               ___fltol@exp1 0044  
                     l2001 09BC                       l2011 0A08                       l2003 09CA  
                     l2101 0CA6                       l2021 0A48                       l2005 09CC  
                     l2031 0A72                       l2023 0A54                       l2015 0A1C  
                     l2007 09D6                       l2111 153C                       l2041 0AE4  
                     l2025 0A58                       l2017 0A2C                       l2009 09F8  
                     l2033 0A78                       l2121 158A                       l2113 1566  
                     l2105 1512                       l2201 1236                       l2051 0B3E  
                     l2035 0A9E                       l2043 0AF4                       l2027 0A66  
                     l2019 0A3A                       l2131 15B6                       l2115 1568  
                     l2107 1528                       l2211 127E                       l2203 1238  
                     l2301 171C                       l2061 0B6E                       l2053 0B48  
                     l2045 0B1A                       l2037 0AD2                       l2029 0A68  
                     l2141 15E6                       l2117 1578                       l2213 1280  
                     l2205 123C                       l2151 1962                       l2311 1730  
                     l2303 171E                       l2071 0BB8                       l2063 0B72  
                     l2055 0B56                       l2047 0B2A                       l2039 0AD4  
                     l2143 15F6                       l2127 15A2                       l2119 157C  
                     l2207 1260                       l2223 1902                       l2161 1998  
                     l2153 1974                       l2241 1A40                       l2233 1A2C  
                     l2313 173C                       l2305 1720                       l2401 0E26  
                     l2081 0C36                       l2065 0B82                       l2057 0B58  
                     l2145 1606                       l2137 15CA                       l2129 15AC  
                     l2209 1270                       l2225 1940                       l2217 18C2  
                     l2163 19AE                       l2155 197C                       l2243 1A44  
                     l2235 1A38                       l2315 174C                       l2307 1722  
                     l2331 19DA                       l2411 0E78                       l2403 0E32  
                     l2091 0C88                       l2075 0BE2                       l2083 0C38  
                     l2059 0B66                       l2067 0B84                       l2251 1AF6  
                     l2139 15D6                       l2171 10E0                       l2227 194E  
                     l2219 18F4                       l2165 19B6                       l2157 1984  
                     l2149 195A                       l2245 1A5A                       l2317 1758  
                     l2309 172E                       l2341 19FC                       l2421 0EF6  
                     l2413 0E88                       l2405 0E42                       l2093 0C8E  
                     l2085 0C48                       l2077 0BEE                       l2069 0BA2  
                     l2173 10F0                       l2229 1956                       l2501 1B7E  
                     l1631 1B9C                       l2167 19B8                       l2159 1992  
                     l2247 1A5E                       l2319 1768                       l2343 1A00  
                     l2431 0F70                       l2423 0F2C                       l2415 0EA4  
                     l2407 0E4E                       l2351 0CD4                       l2095 0C90  
                     l2087 0C58                       l2079 0BFC                       l2191 11B6  
                     l2183 116E                       l2175 10FE                       l2263 1652  
                     l2255 1618                       l2503 1B80                       l1633 1B9E  
                     l2169 19BE                       l2281 16DA                       l2337 19E2  
                     l2329 19CE                       l2441 0FF8                       l2433 0F82  
                     l2425 0F3A                       l2417 0EB0                       l2409 0E5E  
                     l2361 0D1A                       l2353 0CE4                       l2345 0CB8  
                     l2097 0C96                       l2089 0C78                       l2249 1AE6  
                     l2193 11C2                       l2185 1176                       l2177 1144  
                     l2265 1668                       l2257 1630                       l2273 1BC0  
                     l2505 1B82                       l1635 1BA0                       l2291 16F4  
                     l2283 16E2                       l2339 19E6                       l2451 105A  
                     l2443 1004                       l2435 0FA0                       l2427 0F58  
                     l2419 0ECC                       l2371 0D46                       l2363 0D20  
                     l2355 0CF4                       l2347 0CC4                       l2099 0CA4  
                     l2195 11FE                       l2187 1182                       l2179 115A  
                     l2267 167C                       l2259 163E                       l2275 1BC4  
                     l1651 1BBA                       l1629 1B90                       l2293 1700  
                     l2285 16EE                       l2277 16CA                       l2461 10B2  
                     l2453 106E                       l2445 1012                       l2437 0FCE  
                     l2429 0F62                       l2381 0D9C                       l2373 0D56  
                     l2365 0D26                       l2357 0D04                       l2349 0CD2  
                     l2197 120A                       l2189 11B4                       l1901 17E2  
                     l2269 16B6                       l1653 1BBC                       l1645 1BB2  
                     l2295 1702                       l2287 16F0                       l2279 16CE  
                     l2463 10C0                       l2455 1088                       l2447 103C  
                     l2391 0DDC                       l2375 0D66                       l2367 0D34  
                     l2359 0D0A                       l1911 0802                       l2199 1218  
                     l1903 17F2                       l2711 129E                       l2703 1292  
                     l1647 1BB6                       l2297 170E                       l2289 16F2  
                     l2481 1AA2                       l2473 1A8A                       l2465 10C2  
                     l2457 1098                       l2449 1040                       l2393 0DE8  
                     l2385 0DB0                       l2377 0D6C                       l2369 0D36  
                     l1921 083E                       l1913 080E                       l1905 1816  
                     l2721 136E                       l2713 12C4                       l2705 1296  
                     l1649 1BB8                       l2299 1712                       l2491 1ACC  
                     l2483 1AAE                       l2475 1A96                       l2459 10A2  
                     l2467 10C8                       l2395 0E00                       l2387 0DBC  
                     l2379 0D8C                       l1931 086C                       l1923 084E  
                     l1915 081C                       l1907 181C                       l2731 13CA  
                     l2723 138A                       l2715 12DE                       l2707 1298  
                     l2493 1AD2                       l2485 1AB4                       l2477 1A98  
                     l2469 10CC                       l2397 0E0C                       l2389 0DC6  
                     l1941 0896                       l1933 087E                       l1925 0850  
                     l1917 081E                       l2733 13CC                       l2725 1396  
                     l2717 12E2                       l2709 129E                       l2741 1B62  
                     l2495 1AD8                       l2487 1AC0                       l2479 1A9C  
                     l2399 0E18                       l1943 08A6                       l1951 08CE  
                     l1935 0880                       l1919 082E                       l1927 0856  
                     l2735 13D0                       l2727 13B0                       l2719 134A  
                     l2751 1B74                       l2743 1B66                       l2497 1ADE  
                     l2489 1AC6                       l1961 0906                       l1953 08DE  
                     l1945 08B6                       l1937 0886                       l1929 0866  
                     l2729 13C8                       l2753 1B76                       l2745 1B6A  
                     l2737 1B54                       l1971 091A                       l1963 090A  
                     l1955 08F0                       l1947 08C6                       l1939 0894  
                     l2499 1B7A                       l2747 1B6E                       l2739 1B58  
                     l2755 1BA4                       l1981 092E                       l1973 091E  
                     l1965 090E                       l1957 08FE                       l1949 08C8  
                     l2749 1B72                       l2757 1BA8                       l1991 096A  
                     l1983 0932                       l1975 0922                       l1967 0912  
                     l1959 0902                       l1895 1776                       l2695 1820  
                     l1993 0986                       l1985 0936                       l1977 0926  
                     l1969 0916                       l1897 17A4                       l2697 1868  
                     l1995 0996                       l1987 093A                       l1979 092A  
                     l1899 17B4                       l2699 189C                       l1997 09AC  
                     l1989 093E                       l1999 09B8                       u2000 0D9C  
                     u2001 0D98                       u2010 0F16                       u1210 17A4  
                     u1211 17A0                       u2100 1088                       u2020 0F70  
                     u1300 08B6                       u1220 17E2                       u2101 1084  
                     u2021 0F6C                       u1301 08B2                       u1221 17DE  
                     u2110 10C0                       u2030 0F90                       u1310 08F0  
                     u1230 1816                       u2111 10BC                       u2031 0F8C  
                     u2015 0F0C                       u1311 08EC                       u1231 1812  
                     u2040 0FA0                       u1400 0A08                       u1320 08FE  
                     u1240 081C                       u2041 0F9C                       u1401 0A04  
                     u1321 08FA                       u1241 0818                       u2050 0FCE  
                     u1410 0A3A                       u1330 096A                       u1250 082E  
                     u2051 0FCA                       u1411 0A36                       u1331 0966  
                     u1251 082A                       u2060 0FE4                       u1500 0B82  
                     u1420 0A48                       u1340 0982                       u1260 083E  
                     u2061 0FE0                       u1501 0B7E                       u1421 0A44  
                     u1341 097C                       u1261 083A                       u2070 0FF8  
                     u1510 0B92                       u1430 0A66                       u1350 0984  
                     u1270 087E                       _LATB 0F8A                       u2071 0FF4  
                     u1511 0B8E                       u1431 0A62                       u1271 087A  
                     u2080 1012                       u1600 0C78                       u1520 0BA2  
                     u1440 0A9E                       u1360 09AC                       u1280 0894  
                     u2081 100E                       u1601 0C74                       u1521 0B9E  
                     u1441 0A9A                       u1361 09A8                       u1281 0890  
                     u2090 105A                       u1610 0C88                       u1530 0BB8  
                     u1450 0AE4                       u1370 09CA                       u1290 08A6  
                     u2091 1056                       u1611 0C84                       u1531 0BB4  
                     u1451 0AE0                       u1371 09C6                       u1291 08A2  
                     u2315 1394                       u1700 1974                       u1620 0CA4  
                     u1540 0BCE                       u1460 0B1A                       u1380 09EA  
                     u2316 1396                       u1701 1970                       u1621 0CA0  
                     u1541 0BCA                       u1461 0B16                       u1381 09E6  
                     u1710 1992                       u1550 0BE2                       u1470 0B2A  
                     u1390 09F8                       u1630 1528                       u1711 198E  
                     u1551 0BDE                       u1471 0B26                       u1391 09F4  
                     u1631 1524                       u1720 19AE                       u1560 0BFC  
                     u1480 0B56                       u1640 155C                       u1800 1236  
                     u1721 19AA                       u1561 0BF8                       u1481 0B52  
                     u1801 1232                       u1570 0C36                       u1490 0B66  
                     u1650 158A                       u1810 1270                       u1730 10F0  
                     u1571 0C32                       u1491 0B62                       u1651 1586  
                     u1811 126C                       u1731 10EC                       u1900 1768  
                     u1580 0C48                       u1660 159E                       u1820 127E  
                     u1740 10FE                       u1901 1764                       u1581 0C44  
                     u1661 159A                       u1645 1552                       u1821 127A  
                     u1741 10FA                       u1910 19FC                       u1590 0C58  
                     u1670 15C6                       u1750 115A                       u1830 18F4  
                     u1911 19F8                       u1591 0C54                       u1671 15C2  
                     u1751 1156                       u1831 18F0                       u1920 1A2A  
                     u1680 15E6                       u1760 11B0                       u1840 1936  
                     u1921 1A26                       u1681 15E2                       u1761 11AC  
                     u1841 192E                       u1850 1A5A                       u1930 0CD2  
                     u1690 15F6                       u1770 11FA                       u1851 1A56  
                     u1931 0CCE                       u1691 15F2                       u1771 11F6  
                     u1860 1A88                       u1940 0CE4                       u1780 1218  
                     u1861 1A84                       u1941 0CE0                       u1781 1214  
                     u1950 0CF4                       u1790 1228                       u1870 163E  
                     u1951 0CF0                       u1791 1224                       u1871 163A  
                     u1960 0D34                       u1848 1938                       u1880 1668  
                     u1961 0D30                       u1881 1664                       u1890 174C  
                     u1970 0D46                       u1891 1748                       u1971 0D42  
                     u1980 0D56                       u1981 0D52                       u1990 0D8C  
                     u1991 0D88                       i2l40 150E                       _TMR2 0FCC  
                     _main 1BA4                       fsr2h 0FDA                       fsr2l 0FD9  
                     btemp 005B                       prodh 0FF4                       prodl 0FF3  
                     start 000E               ___param_bank 0000                      ??_ISR 0003  
            ___fltol@sign1 0043            __end_of___fladd 0CB8                      ?_main 0001  
          __end_of___flmul 10DE            __end_of___flsub 1B2C            __end_of___fltol 1618  
                    _T0CON 0FD5                      _T2CON 0FCA            __end_of_adc_ini 1BA4  
          __end_of___lwdiv 19CE                      i2l142 1BD2                      _TMR0H 0FD7  
                    _TMR0L 0FD6                      _PORTD 0F83                      _TRISA 0F92  
                    _TRISB 0F93                      _TRISD 0F95             i2_timer0_write 1BCA  
          __end_of_lcd_com 1776            __end_of_lcd_ini 1AE6                      _frexp 18C2  
                    _errno 0079            __end_of_pic_ini 1B7A                      _round 1820  
                    _trunc 1618            __end_of_ms_time 1A2C                      tablat 0FF5  
                    ttemp5 005C                      ttemp6 005F                      ttemp7 0063  
                    status 0FD8            __end_of_us_time 1A8A                      wtemp8 005C  
          __initialization 1B2C               __end_of_main 1BB2                     ??_main 0057  
            __activetblptr 0000     __end_ofi2_timer0_write 1BD4                     _ADCON1 0FC1  
                   _ADCON2 0FC0                     ?_frexp 0010                     _ADRESH 0FC4  
                   _ADRESL 0FC3                     _CCPR1L 0FBE                     ?_round 0060  
                   ?_trunc 0045                     i2l2613 1BCA                     i2l2621 13E8  
                   i2l2615 1BCE                     i2l2631 142C                     i2l2623 13F4  
                   i2l2641 1456                     i2l2633 143E                     i2l2625 1418  
                   i2l2617 13D8                     i2l2651 1482                     i2l2643 145A  
                   i2l2635 1440                     i2l2627 1426                     i2l2619 13E6  
                   i2l2661 14BC                     i2l2653 1494                     i2l2645 146C  
                   i2l2637 1442                     i2l2629 142A                     i2l2671 14E6  
                   i2l2663 14BE                     i2l2655 1496                     i2l2647 1470  
                   i2l2639 1444                     i2l2673 14F8                     i2l2665 14D0  
                   i2l2657 14A8                     i2l2649 1480                     i2l2675 14FA  
                   i2l2667 14D2                     i2l2659 14AA                     i2l2677 150C  
                   i2l2669 14E4                     _OSCCON 0FD3           __end_of___xxtofl 1292  
                   ___fleq 1776                  ??___fladd 001A                  ??___flmul 002A  
                ??___flsub 0057                  ??___fltol 003F                  ??_adc_ini 0004  
                ??___lwdiv 0008                     isa$std 0001                  ??_lcd_com 0011  
                ??_lcd_ini 0012           __end_of_pwm1_ini 13D6            ?i2_timer0_write 0001  
             __pdataCOMRAM 005A                  ??_pic_ini 0057               __mediumconst 0000  
                ??_ms_time 000D                     tblptrh 0FF7                     tblptrl 0FF6  
                   tblptru 0FF8                     round@f 0064                     round@x 0060  
                ??_us_time 000D                     trunc@i 0049                     trunc@x 0045  
             ___xxtofl@arg 000E               ___xxtofl@exp 000D               ___xxtofl@val 0004  
               ___fleq@ff1 0004                 ___fleq@ff2 0008                 __accesstop 0060  
  __end_of__initialization 1B4A              ___rparam_used 0001                 ___fltol@f1 003B  
           __pcstackCOMRAM 0001              __end_of_frexp 195A              __end_of_round 18C2  
            __end_of_trunc 16C8                    ??_frexp 0015                    ??_round 0057  
                  ??_trunc 0049                 __pbssBANK0 0079  i2timer0_write@timer_value 0001  
                  ?___fleq 0004                    _CCP1CON 0FBD                    _ECCP1AS 0FB6  
                ?___xxtofl 0004                  ?_pwm1_ini 0001                    __Hparam 0000  
                  __Lparam 0000                    ___fladd 0802                    ___flmul 0CB8  
                  ___flsub 1AE6                    ___fltol 1512                    _adc_ini 1B90  
                  ___lwdiv 195A               __psmallconst 0800                    __pcinit 1B2C  
                  __ramtop 0800                    __ptext0 1BA4                    __ptext1 1B54  
                  __ptext2 1BB2                    __ptext3 1B7A                    __ptext4 1BC0  
                  __ptext5 1292                    __ptext6 1820                    __ptext7 1618  
                  __ptext8 18C2                    __ptext9 1776                    _lcd_com 16C8  
                  _lcd_ini 1A8A              ?_timer0_write 0004                  _T0CONbits 0FD5  
                _T2CONbits 0FCA              pwm1_ini@cycle 0077                    _pic_ini 1B54  
               ??___xxtofl 0008                    _ms_time 19CE                    _rpm_ckp 0059  
                  _rpm_cmp 0058                    _us_time 1A2C             __pintcode_body 13D6  
     end_of_initialization 1B4A                    int_func 13D6                 ??_pwm1_ini 0068  
               _timer0_ini 1B7A                    postdec2 0FDD                 _timer2_ini 1BB2  
                  postinc2 0FDE           ??i2_timer0_write 0003             ??_timer0_write 0006  
                _PORTDbits 0F83                ___fladd@grs 0021              ___xxtofl@sign 000C  
                _TRISBbits 0F93                  _TRISCbits 0F94                 lcd_com@cmd 0011  
              ___flmul@grs 002F                _CCP1CONbits 0FBD             __end_of___fleq 1820  
            __pidataCOMRAM 1BD4              _pwm1_ini$1540 006E              _pwm1_ini$1541 0072  
            _pwm1_ini$1539 006A        start_initialization 1B2C                __end_of_ISR 1512  
               frexp@value 0010                   ??___fleq 000C                ?_timer0_ini 0001  
              ?_timer2_ini 0001                  ___fladd@a 0016                  ___fladd@b 0012  
                ___flmul@a 0026                  ___flmul@b 0022                __pbssCOMRAM 0057  
                ___flsub@a 0053                  ___flsub@b 004F              __pcstackBANK0 0060  
     __end_of_timer0_write 1BCA           ___lwdiv@dividend 0004                  __pintcode 0008  
                 ?___fladd 0012                   ?___flmul 0022                   ?___flsub 004F  
                 ?___fltol 003B                   ?_adc_ini 0001                   ?___lwdiv 0004  
               ms_time@sms 000F                 ms_time@tms 000D                   ?_lcd_com 0001  
                 ?_lcd_ini 0001                __smallconst 0800                   _ECCP1DEL 0FB7  
                 ?_pic_ini 0001                   ?_ms_time 000B           ___lwdiv@quotient 0008  
                 ?_us_time 000B                   _LATBbits 0F8A                   _LATCbits 0F8B  
                 _IPR1bits 0F9F                   _PIE1bits 0F9D                   i2u220_40 1456  
                 i2u220_41 1452                   i2u221_40 146C                   i2u221_41 1468  
                 i2u222_40 1480                   i2u222_41 147C                   i2u223_40 1494  
                 i2u223_41 1490                   i2u224_40 14A8                   i2u216_40 13E6  
                 i2u224_41 14A4                   i2u216_41 13E2                   i2u225_40 14BC  
                 i2u217_40 1404                   i2u225_41 14B8                   i2u217_41 13FE  
                 i2u217_46 1406                   i2u226_40 14D0                   i2u218_40 1426  
                 i2u226_41 14CC                   i2u218_41 1422                   i2u227_40 14E4  
                 i2u219_40 143E                   i2u227_41 14E0                   i2u219_41 143A  
                 i2u228_40 14F8                   i2u228_41 14F4                   i2u229_40 150C  
                 i2u229_41 1508                   _PIR1bits 0F9E                 _ADCON0bits 0FC2  
                _turn_ctrl 0057                  frexp@eptr 0014                   __Hrparam 0000  
                 __Lrparam 0000                 us_time@sus 000F                 us_time@tus 000D  
                 ___xxtofl 10DE            ___lwdiv@divisor 0006            ___lwdiv@counter 000A  
                 __ptext10 10DE                   __ptext11 1512                   __ptext20 1B90  
                 __ptext12 1AE6                   __ptext13 0802                   __ptext22 1BCA  
                 __ptext14 0CB8                   __ptext15 1A8A                   __ptext16 19CE  
                 __ptext17 16C8                   __ptext18 1A2C                   __ptext19 195A  
                ms_time@ms 000B                 trunc@expon 004D           _interrupt_timer0 005A  
           pwm1_ini@pr_var 0076                   _pwm1_ini 1292                   isa$xinst 0000  
             ??_timer0_ini 0006               ??_timer2_ini 0004                   int$flags 005B  
             _timer0_write 1BC0                 _INTCONbits 0FF2                  us_time@us 000B  
                 intlevel2 0000         __end_of_timer0_ini 1B90         __end_of_timer2_ini 1BC0  
  timer0_write@timer_value 0004              ___fladd@signs 001E               ___fladd@aexp 001F  
             ___fladd@bexp 0020  
